
NUCLEO_F303K8/slave.elf:     file format elf32-littlearm
architecture: arm, flags 0x00000112:
EXEC_P, HAS_SYMS, D_PAGED
start address 0x080045b9


Disassembly of section .text:

08000000 <g_pfnVectors>:
 8000000:	00 30 00 20 b9 45 00 08 ed 45 00 08 ed 45 00 08     .0. .E...E...E..
 8000010:	ed 45 00 08 ed 45 00 08 ed 45 00 08 00 00 00 00     .E...E...E......
	...
 800002c:	7d 44 00 08 ed 45 00 08 00 00 00 00 23 45 00 08     }D...E......#E..
 800003c:	83 45 00 08 ed 45 00 08 ed 45 00 08 ed 45 00 08     .E...E...E...E..
 800004c:	ed 45 00 08 ed 45 00 08 ed 45 00 08 ed 45 00 08     .E...E...E...E..
 800005c:	ed 45 00 08 ed 45 00 08 ed 45 00 08 ed 45 00 08     .E...E...E...E..
 800006c:	ed 45 00 08 ed 45 00 08 ed 45 00 08 ed 45 00 08     .E...E...E...E..
 800007c:	ed 45 00 08 ed 45 00 08 ed 45 00 08 ed 45 00 08     .E...E...E...E..
 800008c:	41 1f 00 08 45 1f 00 08 ed 45 00 08 41 1e 00 08     A...E....E..A...
 800009c:	ed 45 00 08 ed 45 00 08 ed 45 00 08 ed 45 00 08     .E...E...E...E..
 80000ac:	ed 45 00 08 ed 45 00 08 ed 45 00 08 00 00 00 00     .E...E...E......
 80000bc:	ed 45 00 08 ed 45 00 08 00 00 00 00 00 00 00 00     .E...E..........
 80000cc:	ed 45 00 08 00 00 00 00 ed 45 00 08 ed 45 00 08     .E.......E...E..
 80000dc:	ed 45 00 08 ed 45 00 08 ed 45 00 08 00 00 00 00     .E...E...E......
	...
 8000118:	ed 45 00 08 ed 45 00 08 00 00 00 00 00 00 00 00     .E...E..........
	...
 8000140:	ed 45 00 08 ed 45 00 08 00 00 00 00 00 00 00 00     .E...E..........
	...
 8000184:	ed 45 00 08                                         .E..

08000188 <__do_global_dtors_aux>:
 8000188:	b510      	push	{r4, lr}
 800018a:	4c05      	ldr	r4, [pc, #20]	; (80001a0 <__do_global_dtors_aux+0x18>)
 800018c:	7823      	ldrb	r3, [r4, #0]
 800018e:	b933      	cbnz	r3, 800019e <__do_global_dtors_aux+0x16>
 8000190:	4b04      	ldr	r3, [pc, #16]	; (80001a4 <__do_global_dtors_aux+0x1c>)
 8000192:	b113      	cbz	r3, 800019a <__do_global_dtors_aux+0x12>
 8000194:	4804      	ldr	r0, [pc, #16]	; (80001a8 <__do_global_dtors_aux+0x20>)
 8000196:	f3af 8000 	nop.w
 800019a:	2301      	movs	r3, #1
 800019c:	7023      	strb	r3, [r4, #0]
 800019e:	bd10      	pop	{r4, pc}
 80001a0:	20000390 	.word	0x20000390
 80001a4:	00000000 	.word	0x00000000
 80001a8:	08006a70 	.word	0x08006a70

080001ac <frame_dummy>:
 80001ac:	4b0c      	ldr	r3, [pc, #48]	; (80001e0 <frame_dummy+0x34>)
 80001ae:	b143      	cbz	r3, 80001c2 <frame_dummy+0x16>
 80001b0:	480c      	ldr	r0, [pc, #48]	; (80001e4 <frame_dummy+0x38>)
 80001b2:	490d      	ldr	r1, [pc, #52]	; (80001e8 <frame_dummy+0x3c>)
 80001b4:	b510      	push	{r4, lr}
 80001b6:	f3af 8000 	nop.w
 80001ba:	480c      	ldr	r0, [pc, #48]	; (80001ec <frame_dummy+0x40>)
 80001bc:	6803      	ldr	r3, [r0, #0]
 80001be:	b923      	cbnz	r3, 80001ca <frame_dummy+0x1e>
 80001c0:	bd10      	pop	{r4, pc}
 80001c2:	480a      	ldr	r0, [pc, #40]	; (80001ec <frame_dummy+0x40>)
 80001c4:	6803      	ldr	r3, [r0, #0]
 80001c6:	b933      	cbnz	r3, 80001d6 <frame_dummy+0x2a>
 80001c8:	4770      	bx	lr
 80001ca:	4b09      	ldr	r3, [pc, #36]	; (80001f0 <frame_dummy+0x44>)
 80001cc:	2b00      	cmp	r3, #0
 80001ce:	d0f7      	beq.n	80001c0 <frame_dummy+0x14>
 80001d0:	e8bd 4010 	ldmia.w	sp!, {r4, lr}
 80001d4:	4718      	bx	r3
 80001d6:	4b06      	ldr	r3, [pc, #24]	; (80001f0 <frame_dummy+0x44>)
 80001d8:	2b00      	cmp	r3, #0
 80001da:	d0f5      	beq.n	80001c8 <frame_dummy+0x1c>
 80001dc:	4718      	bx	r3
 80001de:	bf00      	nop
 80001e0:	00000000 	.word	0x00000000
 80001e4:	08006a70 	.word	0x08006a70
 80001e8:	20000394 	.word	0x20000394
 80001ec:	2000038c 	.word	0x2000038c
 80001f0:	00000000 	.word	0x00000000

080001f4 <void mbed::Callback<void ()>::function_call<void (*)()>(void const*)>:
 80001f4:	6803      	ldr	r3, [r0, #0]
 80001f6:	4718      	bx	r3

080001f8 <void mbed::Callback<void ()>::function_move<void (*)()>(void*, void const*)>:
 80001f8:	b108      	cbz	r0, 80001fe <void mbed::Callback<void ()>::function_move<void (*)()>(void*, void const*)+0x6>
 80001fa:	680b      	ldr	r3, [r1, #0]
 80001fc:	6003      	str	r3, [r0, #0]
 80001fe:	4770      	bx	lr

08000200 <void mbed::Callback<void ()>::function_dtor<void (*)()>(void*)>:
 8000200:	4770      	bx	lr

08000202 <mbed::CANMessage::CANMessage()>:
 8000202:	b510      	push	{r4, lr}
 8000204:	2210      	movs	r2, #16
 8000206:	4604      	mov	r4, r0
 8000208:	2100      	movs	r1, #0
 800020a:	f004 fdce 	bl	8004daa <memset>
 800020e:	2308      	movs	r3, #8
 8000210:	7323      	strb	r3, [r4, #12]
 8000212:	2300      	movs	r3, #0
 8000214:	6063      	str	r3, [r4, #4]
 8000216:	60a3      	str	r3, [r4, #8]
 8000218:	4620      	mov	r0, r4
 800021a:	bd10      	pop	{r4, pc}

0800021c <can_Cb()>:
 800021c:	b57f      	push	{r0, r1, r2, r3, r4, r5, r6, lr}
 800021e:	a802      	add	r0, sp, #8
 8000220:	f7ff ffef 	bl	8000202 <mbed::CANMessage::CANMessage()>
 8000224:	2200      	movs	r2, #0
 8000226:	a902      	add	r1, sp, #8
 8000228:	4813      	ldr	r0, [pc, #76]	; (8000278 <can_Cb()+0x5c>)
 800022a:	f003 fc3f 	bl	8003aac <mbed::CAN::read(mbed::CANMessage&, int)>
 800022e:	b300      	cbz	r0, 8000272 <can_Cb()+0x56>
 8000230:	9a02      	ldr	r2, [sp, #8]
 8000232:	2a01      	cmp	r2, #1
 8000234:	d11d      	bne.n	8000272 <can_Cb()+0x56>
 8000236:	4b11      	ldr	r3, [pc, #68]	; (800027c <can_Cb()+0x60>)
 8000238:	f89d 1012 	ldrb.w	r1, [sp, #18]
 800023c:	711a      	strb	r2, [r3, #4]
 800023e:	f89d 200c 	ldrb.w	r2, [sp, #12]
 8000242:	715a      	strb	r2, [r3, #5]
 8000244:	f89d 200d 	ldrb.w	r2, [sp, #13]
 8000248:	719a      	strb	r2, [r3, #6]
 800024a:	f89d 200e 	ldrb.w	r2, [sp, #14]
 800024e:	71da      	strb	r2, [r3, #7]
 8000250:	f89d 200f 	ldrb.w	r2, [sp, #15]
 8000254:	4808      	ldr	r0, [pc, #32]	; (8000278 <can_Cb()+0x5c>)
 8000256:	f001 010f 	and.w	r1, r1, #15
 800025a:	f022 020f 	bic.w	r2, r2, #15
 800025e:	430a      	orrs	r2, r1
 8000260:	721a      	strb	r2, [r3, #8]
 8000262:	f89d 2013 	ldrb.w	r2, [sp, #19]
 8000266:	725a      	strb	r2, [r3, #9]
 8000268:	68da      	ldr	r2, [r3, #12]
 800026a:	9200      	str	r2, [sp, #0]
 800026c:	cb0e      	ldmia	r3, {r1, r2, r3}
 800026e:	f003 fbfe 	bl	8003a6e <mbed::CAN::write(mbed::CANMessage)>
 8000272:	b007      	add	sp, #28
 8000274:	f85d fb04 	ldr.w	pc, [sp], #4
 8000278:	200003bc 	.word	0x200003bc
 800027c:	200003ac 	.word	0x200003ac

08000280 <mbed::Callback<void ()>::~Callback()>:
 8000280:	68c3      	ldr	r3, [r0, #12]
 8000282:	b510      	push	{r4, lr}
 8000284:	4604      	mov	r4, r0
 8000286:	b10b      	cbz	r3, 800028c <mbed::Callback<void ()>::~Callback()+0xc>
 8000288:	689b      	ldr	r3, [r3, #8]
 800028a:	4798      	blx	r3
 800028c:	4620      	mov	r0, r4
 800028e:	bd10      	pop	{r4, pc}

08000290 <mbed::SerialBase::~SerialBase()>:
 8000290:	b570      	push	{r4, r5, r6, lr}
 8000292:	4605      	mov	r5, r0
 8000294:	4b07      	ldr	r3, [pc, #28]	; (80002b4 <mbed::SerialBase::~SerialBase()+0x24>)
 8000296:	f845 3b28 	str.w	r3, [r5], #40
 800029a:	4606      	mov	r6, r0
 800029c:	b145      	cbz	r5, 80002b0 <mbed::SerialBase::~SerialBase()+0x20>
 800029e:	f100 0448 	add.w	r4, r0, #72	; 0x48
 80002a2:	42ac      	cmp	r4, r5
 80002a4:	d004      	beq.n	80002b0 <mbed::SerialBase::~SerialBase()+0x20>
 80002a6:	3c10      	subs	r4, #16
 80002a8:	4620      	mov	r0, r4
 80002aa:	f7ff ffe9 	bl	8000280 <mbed::Callback<void ()>::~Callback()>
 80002ae:	e7f8      	b.n	80002a2 <mbed::SerialBase::~SerialBase()+0x12>
 80002b0:	4630      	mov	r0, r6
 80002b2:	bd70      	pop	{r4, r5, r6, pc}
 80002b4:	080067a0 	.word	0x080067a0

080002b8 <mbed::SerialBase::~SerialBase()>:
 80002b8:	b510      	push	{r4, lr}
 80002ba:	4604      	mov	r4, r0
 80002bc:	f7ff ffe8 	bl	8000290 <mbed::SerialBase::~SerialBase()>
 80002c0:	4620      	mov	r0, r4
 80002c2:	f003 ffa0 	bl	8004206 <operator delete(void*)>
 80002c6:	4620      	mov	r0, r4
 80002c8:	bd10      	pop	{r4, pc}
	...

080002cc <mbed::Serial::~Serial()>:
 80002cc:	4b08      	ldr	r3, [pc, #32]	; (80002f0 <mbed::Serial::~Serial()+0x24>)
 80002ce:	b510      	push	{r4, lr}
 80002d0:	6003      	str	r3, [r0, #0]
 80002d2:	3320      	adds	r3, #32
 80002d4:	4604      	mov	r4, r0
 80002d6:	64c3      	str	r3, [r0, #76]	; 0x4c
 80002d8:	3060      	adds	r0, #96	; 0x60
 80002da:	f004 f899 	bl	8004410 <rtos::Mutex::~Mutex()>
 80002de:	f104 004c 	add.w	r0, r4, #76	; 0x4c
 80002e2:	f003 fb8f 	bl	8003a04 <mbed::Stream::~Stream()>
 80002e6:	4620      	mov	r0, r4
 80002e8:	f7ff ffd2 	bl	8000290 <mbed::SerialBase::~SerialBase()>
 80002ec:	4620      	mov	r0, r4
 80002ee:	bd10      	pop	{r4, pc}
 80002f0:	08006668 	.word	0x08006668

080002f4 <non-virtual thunk to mbed::Serial::~Serial()>:
 80002f4:	f1a0 004c 	sub.w	r0, r0, #76	; 0x4c
 80002f8:	e7e8      	b.n	80002cc <mbed::Serial::~Serial()>
 80002fa:	bf00      	nop

080002fc <main>:
 80002fc:	b51f      	push	{r0, r1, r2, r3, r4, lr}
 80002fe:	4b0e      	ldr	r3, [pc, #56]	; (8000338 <main+0x3c>)
 8000300:	490e      	ldr	r1, [pc, #56]	; (800033c <main+0x40>)
 8000302:	480f      	ldr	r0, [pc, #60]	; (8000340 <main+0x44>)
 8000304:	2206      	movs	r2, #6
 8000306:	2400      	movs	r4, #0
 8000308:	731a      	strb	r2, [r3, #12]
 800030a:	601c      	str	r4, [r3, #0]
 800030c:	f003 fb9c 	bl	8003a48 <mbed::CAN::frequency(int)>
 8000310:	4b0c      	ldr	r3, [pc, #48]	; (8000344 <main+0x48>)
 8000312:	480b      	ldr	r0, [pc, #44]	; (8000340 <main+0x44>)
 8000314:	68da      	ldr	r2, [r3, #12]
 8000316:	681b      	ldr	r3, [r3, #0]
 8000318:	6013      	str	r3, [r2, #0]
 800031a:	4b0b      	ldr	r3, [pc, #44]	; (8000348 <main+0x4c>)
 800031c:	9300      	str	r3, [sp, #0]
 800031e:	4622      	mov	r2, r4
 8000320:	4b0a      	ldr	r3, [pc, #40]	; (800034c <main+0x50>)
 8000322:	9303      	str	r3, [sp, #12]
 8000324:	4669      	mov	r1, sp
 8000326:	f003 fc53 	bl	8003bd0 <mbed::CAN::attach(mbed::Callback<void ()>, mbed::CAN::IrqType)>
 800032a:	4668      	mov	r0, sp
 800032c:	f7ff ffa8 	bl	8000280 <mbed::Callback<void ()>::~Callback()>
 8000330:	2001      	movs	r0, #1
 8000332:	f003 fe03 	bl	8003f3c <wait_ms>
 8000336:	e7fb      	b.n	8000330 <main+0x34>
 8000338:	200003ac 	.word	0x200003ac
 800033c:	000f4240 	.word	0x000f4240
 8000340:	200003bc 	.word	0x200003bc
 8000344:	20000470 	.word	0x20000470
 8000348:	0800021d 	.word	0x0800021d
 800034c:	0800633c 	.word	0x0800633c

08000350 <mbed::Serial::~Serial()>:
 8000350:	b510      	push	{r4, lr}
 8000352:	4604      	mov	r4, r0
 8000354:	f7ff ffba 	bl	80002cc <mbed::Serial::~Serial()>
 8000358:	4620      	mov	r0, r4
 800035a:	f003 ff54 	bl	8004206 <operator delete(void*)>
 800035e:	4620      	mov	r0, r4
 8000360:	bd10      	pop	{r4, pc}

08000362 <non-virtual thunk to mbed::Serial::~Serial()>:
 8000362:	f1a0 004c 	sub.w	r0, r0, #76	; 0x4c
 8000366:	e7f3      	b.n	8000350 <mbed::Serial::~Serial()>

08000368 <_GLOBAL__sub_I_myled>:
 8000368:	b538      	push	{r3, r4, r5, lr}
 800036a:	4c13      	ldr	r4, [pc, #76]	; (80003b8 <_GLOBAL__sub_I_myled+0x50>)
 800036c:	4d13      	ldr	r5, [pc, #76]	; (80003bc <_GLOBAL__sub_I_myled+0x54>)
 800036e:	221c      	movs	r2, #28
 8000370:	2100      	movs	r1, #0
 8000372:	4620      	mov	r0, r4
 8000374:	f004 fd19 	bl	8004daa <memset>
 8000378:	4620      	mov	r0, r4
 800037a:	4c11      	ldr	r4, [pc, #68]	; (80003c0 <_GLOBAL__sub_I_myled+0x58>)
 800037c:	2113      	movs	r1, #19
 800037e:	f000 f86d 	bl	800045c <gpio_init_out>
 8000382:	220c      	movs	r2, #12
 8000384:	210b      	movs	r1, #11
 8000386:	4620      	mov	r0, r4
 8000388:	f003 fbe2 	bl	8003b50 <mbed::CAN::CAN(PinName, PinName)>
 800038c:	4620      	mov	r0, r4
 800038e:	4c0d      	ldr	r4, [pc, #52]	; (80003c4 <_GLOBAL__sub_I_myled+0x5c>)
 8000390:	490d      	ldr	r1, [pc, #52]	; (80003c8 <_GLOBAL__sub_I_myled+0x60>)
 8000392:	462a      	mov	r2, r5
 8000394:	f003 ff0e 	bl	80041b4 <__aeabi_atexit>
 8000398:	f44f 4361 	mov.w	r3, #57600	; 0xe100
 800039c:	220f      	movs	r2, #15
 800039e:	2102      	movs	r1, #2
 80003a0:	4620      	mov	r0, r4
 80003a2:	f003 fa1f 	bl	80037e4 <mbed::Serial::Serial(PinName, PinName, int)>
 80003a6:	462a      	mov	r2, r5
 80003a8:	4908      	ldr	r1, [pc, #32]	; (80003cc <_GLOBAL__sub_I_myled+0x64>)
 80003aa:	4620      	mov	r0, r4
 80003ac:	f003 ff02 	bl	80041b4 <__aeabi_atexit>
 80003b0:	4807      	ldr	r0, [pc, #28]	; (80003d0 <_GLOBAL__sub_I_myled+0x68>)
 80003b2:	f7ff ff26 	bl	8000202 <mbed::CANMessage::CANMessage()>
 80003b6:	bd38      	pop	{r3, r4, r5, pc}
 80003b8:	20000470 	.word	0x20000470
 80003bc:	20000188 	.word	0x20000188
 80003c0:	200003bc 	.word	0x200003bc
 80003c4:	2000048c 	.word	0x2000048c
 80003c8:	08003ad9 	.word	0x08003ad9
 80003cc:	080002cd 	.word	0x080002cd
 80003d0:	200003ac 	.word	0x200003ac

080003d4 <_start>:
 80003d4:	4807      	ldr	r0, [pc, #28]	; (80003f4 <_start+0x20>)
 80003d6:	4a08      	ldr	r2, [pc, #32]	; (80003f8 <_start+0x24>)
 80003d8:	b508      	push	{r3, lr}
 80003da:	1a12      	subs	r2, r2, r0
 80003dc:	2100      	movs	r1, #0
 80003de:	f004 fce4 	bl	8004daa <memset>
 80003e2:	f003 fea4 	bl	800412e <software_init_hook>
 80003e6:	f004 fbcd 	bl	8004b84 <__libc_init_array>
 80003ea:	f003 fea7 	bl	800413c <__wrap_main>
 80003ee:	f003 fee3 	bl	80041b8 <__wrap_exit>
 80003f2:	bf00      	nop
 80003f4:	20000390 	.word	0x20000390
 80003f8:	20001a8c 	.word	0x20001a8c

080003fc <__wrap__isatty>:
 80003fc:	2802      	cmp	r0, #2
 80003fe:	dd01      	ble.n	8000404 <__wrap__isatty+0x8>
 8000400:	f003 be48 	b.w	8004094 <_isatty>
 8000404:	2001      	movs	r0, #1
 8000406:	4770      	bx	lr

08000408 <abort>:
 8000408:	b508      	push	{r3, lr}
 800040a:	2001      	movs	r0, #1
 800040c:	f003 fed4 	bl	80041b8 <__wrap_exit>

08000410 <__cxa_pure_virtual>:
 8000410:	b508      	push	{r3, lr}
 8000412:	f7ff fff9 	bl	8000408 <abort>

08000416 <_gpio_init_out.part.1>:
 8000416:	b538      	push	{r3, r4, r5, lr}
 8000418:	4604      	mov	r4, r0
 800041a:	460d      	mov	r5, r1
 800041c:	6803      	ldr	r3, [r0, #0]
 800041e:	b15a      	cbz	r2, 8000438 <_gpio_init_out.part.1+0x22>
 8000420:	6882      	ldr	r2, [r0, #8]
 8000422:	6013      	str	r3, [r2, #0]
 8000424:	4620      	mov	r0, r4
 8000426:	2101      	movs	r1, #1
 8000428:	f001 fcd6 	bl	8001dd8 <gpio_dir>
 800042c:	4629      	mov	r1, r5
 800042e:	4620      	mov	r0, r4
 8000430:	e8bd 4038 	ldmia.w	sp!, {r3, r4, r5, lr}
 8000434:	f001 bccc 	b.w	8001dd0 <gpio_mode>
 8000438:	68c2      	ldr	r2, [r0, #12]
 800043a:	e7f2      	b.n	8000422 <_gpio_init_out.part.1+0xc>

0800043c <gpio_init_out_ex>:
 800043c:	b570      	push	{r4, r5, r6, lr}
 800043e:	460e      	mov	r6, r1
 8000440:	4604      	mov	r4, r0
 8000442:	4615      	mov	r5, r2
 8000444:	f001 fca2 	bl	8001d8c <gpio_init>
 8000448:	3601      	adds	r6, #1
 800044a:	d006      	beq.n	800045a <gpio_init_out_ex+0x1e>
 800044c:	462a      	mov	r2, r5
 800044e:	4620      	mov	r0, r4
 8000450:	2100      	movs	r1, #0
 8000452:	e8bd 4070 	ldmia.w	sp!, {r4, r5, r6, lr}
 8000456:	f7ff bfde 	b.w	8000416 <_gpio_init_out.part.1>
 800045a:	bd70      	pop	{r4, r5, r6, pc}

0800045c <gpio_init_out>:
 800045c:	2200      	movs	r2, #0
 800045e:	f7ff bfed 	b.w	800043c <gpio_init_out_ex>
	...

08000464 <us_ticker_irq_handler>:
 8000464:	4801      	ldr	r0, [pc, #4]	; (800046c <us_ticker_irq_handler+0x8>)
 8000466:	f000 b803 	b.w	8000470 <ticker_irq_handler>
 800046a:	bf00      	nop
 800046c:	08006348 	.word	0x08006348

08000470 <ticker_irq_handler>:
 8000470:	6803      	ldr	r3, [r0, #0]
 8000472:	b570      	push	{r4, r5, r6, lr}
 8000474:	68db      	ldr	r3, [r3, #12]
 8000476:	4604      	mov	r4, r0
 8000478:	4798      	blx	r3
 800047a:	6863      	ldr	r3, [r4, #4]
 800047c:	685a      	ldr	r2, [r3, #4]
 800047e:	6823      	ldr	r3, [r4, #0]
 8000480:	b91a      	cbnz	r2, 800048a <ticker_irq_handler+0x1a>
 8000482:	689b      	ldr	r3, [r3, #8]
 8000484:	e8bd 4070 	ldmia.w	sp!, {r4, r5, r6, lr}
 8000488:	4718      	bx	r3
 800048a:	685b      	ldr	r3, [r3, #4]
 800048c:	6815      	ldr	r5, [r2, #0]
 800048e:	4798      	blx	r3
 8000490:	6863      	ldr	r3, [r4, #4]
 8000492:	1a28      	subs	r0, r5, r0
 8000494:	2800      	cmp	r0, #0
 8000496:	685a      	ldr	r2, [r3, #4]
 8000498:	dc07      	bgt.n	80004aa <ticker_irq_handler+0x3a>
 800049a:	6891      	ldr	r1, [r2, #8]
 800049c:	6059      	str	r1, [r3, #4]
 800049e:	681b      	ldr	r3, [r3, #0]
 80004a0:	2b00      	cmp	r3, #0
 80004a2:	d0ea      	beq.n	800047a <ticker_irq_handler+0xa>
 80004a4:	6850      	ldr	r0, [r2, #4]
 80004a6:	4798      	blx	r3
 80004a8:	e7e7      	b.n	800047a <ticker_irq_handler+0xa>
 80004aa:	6823      	ldr	r3, [r4, #0]
 80004ac:	6810      	ldr	r0, [r2, #0]
 80004ae:	691b      	ldr	r3, [r3, #16]
 80004b0:	e8bd 4070 	ldmia.w	sp!, {r4, r5, r6, lr}
 80004b4:	4718      	bx	r3
	...

080004b8 <pinmap_pinout>:
 80004b8:	b510      	push	{r4, lr}
 80004ba:	4604      	mov	r4, r0
 80004bc:	3001      	adds	r0, #1
 80004be:	d10d      	bne.n	80004dc <pinmap_pinout+0x24>
 80004c0:	bd10      	pop	{r4, pc}
 80004c2:	429c      	cmp	r4, r3
 80004c4:	d109      	bne.n	80004da <pinmap_pinout+0x22>
 80004c6:	4620      	mov	r0, r4
 80004c8:	6889      	ldr	r1, [r1, #8]
 80004ca:	f001 ff8f 	bl	80023ec <pin_function>
 80004ce:	4620      	mov	r0, r4
 80004d0:	2100      	movs	r1, #0
 80004d2:	e8bd 4010 	ldmia.w	sp!, {r4, lr}
 80004d6:	f002 b80b 	b.w	80024f0 <pin_mode>
 80004da:	310c      	adds	r1, #12
 80004dc:	f9b1 3000 	ldrsh.w	r3, [r1]
 80004e0:	1c5a      	adds	r2, r3, #1
 80004e2:	d1ee      	bne.n	80004c2 <pinmap_pinout+0xa>
 80004e4:	4802      	ldr	r0, [pc, #8]	; (80004f0 <pinmap_pinout+0x38>)
 80004e6:	e8bd 4010 	ldmia.w	sp!, {r4, lr}
 80004ea:	f000 b84d 	b.w	8000588 <error>
 80004ee:	bf00      	nop
 80004f0:	08006395 	.word	0x08006395

080004f4 <pinmap_merge>:
 80004f4:	4288      	cmp	r0, r1
 80004f6:	b508      	push	{r3, lr}
 80004f8:	d008      	beq.n	800050c <pinmap_merge+0x18>
 80004fa:	1c43      	adds	r3, r0, #1
 80004fc:	d006      	beq.n	800050c <pinmap_merge+0x18>
 80004fe:	3101      	adds	r1, #1
 8000500:	d006      	beq.n	8000510 <pinmap_merge+0x1c>
 8000502:	4804      	ldr	r0, [pc, #16]	; (8000514 <pinmap_merge+0x20>)
 8000504:	f000 f840 	bl	8000588 <error>
 8000508:	f04f 31ff 	mov.w	r1, #4294967295	; 0xffffffff
 800050c:	4608      	mov	r0, r1
 800050e:	bd08      	pop	{r3, pc}
 8000510:	4601      	mov	r1, r0
 8000512:	e7fb      	b.n	800050c <pinmap_merge+0x18>
 8000514:	08006364 	.word	0x08006364

08000518 <pinmap_find_peripheral>:
 8000518:	f9b1 3000 	ldrsh.w	r3, [r1]
 800051c:	1c5a      	adds	r2, r3, #1
 800051e:	d101      	bne.n	8000524 <pinmap_find_peripheral+0xc>
 8000520:	4618      	mov	r0, r3
 8000522:	4770      	bx	lr
 8000524:	4283      	cmp	r3, r0
 8000526:	d101      	bne.n	800052c <pinmap_find_peripheral+0x14>
 8000528:	6848      	ldr	r0, [r1, #4]
 800052a:	4770      	bx	lr
 800052c:	310c      	adds	r1, #12
 800052e:	e7f3      	b.n	8000518 <pinmap_find_peripheral>

08000530 <pinmap_peripheral>:
 8000530:	1c42      	adds	r2, r0, #1
 8000532:	b510      	push	{r4, lr}
 8000534:	4604      	mov	r4, r0
 8000536:	d007      	beq.n	8000548 <pinmap_peripheral+0x18>
 8000538:	f7ff ffee 	bl	8000518 <pinmap_find_peripheral>
 800053c:	1c43      	adds	r3, r0, #1
 800053e:	4604      	mov	r4, r0
 8000540:	d102      	bne.n	8000548 <pinmap_peripheral+0x18>
 8000542:	4802      	ldr	r0, [pc, #8]	; (800054c <pinmap_peripheral+0x1c>)
 8000544:	f000 f820 	bl	8000588 <error>
 8000548:	4620      	mov	r0, r4
 800054a:	bd10      	pop	{r4, pc}
 800054c:	08006375 	.word	0x08006375

08000550 <core_util_are_interrupts_enabled>:
 8000550:	f3ef 8010 	mrs	r0, PRIMASK
 8000554:	43c0      	mvns	r0, r0
 8000556:	f000 0001 	and.w	r0, r0, #1
 800055a:	4770      	bx	lr

0800055c <core_util_critical_section_enter>:
 800055c:	b508      	push	{r3, lr}
 800055e:	f7ff fff7 	bl	8000550 <core_util_are_interrupts_enabled>
 8000562:	b672      	cpsid	i
 8000564:	4b06      	ldr	r3, [pc, #24]	; (8000580 <core_util_critical_section_enter+0x24>)
 8000566:	681a      	ldr	r2, [r3, #0]
 8000568:	b922      	cbnz	r2, 8000574 <core_util_critical_section_enter+0x18>
 800056a:	f080 0001 	eor.w	r0, r0, #1
 800056e:	4a05      	ldr	r2, [pc, #20]	; (8000584 <core_util_critical_section_enter+0x28>)
 8000570:	b2c0      	uxtb	r0, r0
 8000572:	7010      	strb	r0, [r2, #0]
 8000574:	681a      	ldr	r2, [r3, #0]
 8000576:	681a      	ldr	r2, [r3, #0]
 8000578:	3201      	adds	r2, #1
 800057a:	601a      	str	r2, [r3, #0]
 800057c:	bd08      	pop	{r3, pc}
 800057e:	bf00      	nop
 8000580:	20000510 	.word	0x20000510
 8000584:	2000050c 	.word	0x2000050c

08000588 <error>:
 8000588:	b40f      	push	{r0, r1, r2, r3}
 800058a:	2001      	movs	r0, #1
 800058c:	b508      	push	{r3, lr}
 800058e:	f003 fe13 	bl	80041b8 <__wrap_exit>

08000592 <mbed_die>:
 8000592:	b508      	push	{r3, lr}
 8000594:	f7ff ffe2 	bl	800055c <core_util_critical_section_enter>
 8000598:	2096      	movs	r0, #150	; 0x96
 800059a:	f003 fccf 	bl	8003f3c <wait_ms>
 800059e:	2096      	movs	r0, #150	; 0x96
 80005a0:	f003 fccc 	bl	8003f3c <wait_ms>
 80005a4:	e7f8      	b.n	8000598 <mbed_die+0x6>

080005a6 <default_idle_hook>:
 80005a6:	f001 bc40 	b.w	8001e2a <hal_sleep>
	...

080005ac <rtos_idle_loop>:
 80005ac:	b508      	push	{r3, lr}
 80005ae:	4c02      	ldr	r4, [pc, #8]	; (80005b8 <rtos_idle_loop+0xc>)
 80005b0:	6823      	ldr	r3, [r4, #0]
 80005b2:	4798      	blx	r3
 80005b4:	e7fc      	b.n	80005b0 <rtos_idle_loop+0x4>
 80005b6:	bf00      	nop
 80005b8:	2000018c 	.word	0x2000018c

080005bc <pre_main>:
 80005bc:	b508      	push	{r3, lr}
 80005be:	480b      	ldr	r0, [pc, #44]	; (80005ec <pre_main+0x30>)
 80005c0:	f000 fdaa 	bl	8001118 <osMutexCreate>
 80005c4:	4b0a      	ldr	r3, [pc, #40]	; (80005f0 <pre_main+0x34>)
 80005c6:	6018      	str	r0, [r3, #0]
 80005c8:	480a      	ldr	r0, [pc, #40]	; (80005f4 <pre_main+0x38>)
 80005ca:	f000 fda5 	bl	8001118 <osMutexCreate>
 80005ce:	4b0a      	ldr	r3, [pc, #40]	; (80005f8 <pre_main+0x3c>)
 80005d0:	6018      	str	r0, [r3, #0]
 80005d2:	480a      	ldr	r0, [pc, #40]	; (80005fc <pre_main+0x40>)
 80005d4:	f000 fda0 	bl	8001118 <osMutexCreate>
 80005d8:	4b09      	ldr	r3, [pc, #36]	; (8000600 <pre_main+0x44>)
 80005da:	6018      	str	r0, [r3, #0]
 80005dc:	f004 fad2 	bl	8004b84 <__libc_init_array>
 80005e0:	2100      	movs	r1, #0
 80005e2:	4608      	mov	r0, r1
 80005e4:	e8bd 4008 	ldmia.w	sp!, {r3, lr}
 80005e8:	f003 bda8 	b.w	800413c <__wrap_main>
 80005ec:	080063f4 	.word	0x080063f4
 80005f0:	20001494 	.word	0x20001494
 80005f4:	080063f0 	.word	0x080063f0
 80005f8:	2000051c 	.word	0x2000051c
 80005fc:	080063ec 	.word	0x080063ec
 8000600:	20000514 	.word	0x20000514

08000604 <os_idle_demon>:
 8000604:	f7ff bfd2 	b.w	80005ac <rtos_idle_loop>

08000608 <os_error>:
 8000608:	b510      	push	{r4, lr}
 800060a:	4604      	mov	r4, r0
 800060c:	f000 fce4 	bl	8000fd8 <svcThreadGetId>
 8000610:	4621      	mov	r1, r4
 8000612:	4602      	mov	r2, r0
 8000614:	e8bd 4010 	ldmia.w	sp!, {r4, lr}
 8000618:	4801      	ldr	r0, [pc, #4]	; (8000620 <os_error+0x18>)
 800061a:	f7ff bfb5 	b.w	8000588 <error>
 800061e:	bf00      	nop
 8000620:	080063b4 	.word	0x080063b4

08000624 <sysThreadTerminate>:
 8000624:	f003 becc 	b.w	80043c0 <thread_terminate_hook>

08000628 <set_stack_heap>:
 8000628:	4a0b      	ldr	r2, [pc, #44]	; (8000658 <set_stack_heap+0x30>)
 800062a:	4b0c      	ldr	r3, [pc, #48]	; (800065c <set_stack_heap+0x34>)
 800062c:	480c      	ldr	r0, [pc, #48]	; (8000660 <set_stack_heap+0x38>)
 800062e:	b430      	push	{r4, r5}
 8000630:	601a      	str	r2, [r3, #0]
 8000632:	f1c2 5300 	rsb	r3, r2, #536870912	; 0x20000000
 8000636:	f503 5340 	add.w	r3, r3, #12288	; 0x3000
 800063a:	f5b3 7fe0 	cmp.w	r3, #448	; 0x1c0
 800063e:	4619      	mov	r1, r3
 8000640:	bf28      	it	cs
 8000642:	f44f 71e0 	movcs.w	r1, #448	; 0x1c0
 8000646:	4d07      	ldr	r5, [pc, #28]	; (8000664 <set_stack_heap+0x3c>)
 8000648:	4c07      	ldr	r4, [pc, #28]	; (8000668 <set_stack_heap+0x40>)
 800064a:	6001      	str	r1, [r0, #0]
 800064c:	1a5b      	subs	r3, r3, r1
 800064e:	441a      	add	r2, r3
 8000650:	602a      	str	r2, [r5, #0]
 8000652:	6023      	str	r3, [r4, #0]
 8000654:	bc30      	pop	{r4, r5}
 8000656:	4770      	bx	lr
 8000658:	20001a8c 	.word	0x20001a8c
 800065c:	200011cc 	.word	0x200011cc
 8000660:	20000520 	.word	0x20000520
 8000664:	20000524 	.word	0x20000524
 8000668:	200011c8 	.word	0x200011c8

0800066c <software_init_hook_rtos>:
 800066c:	f000 fe38 	bl	80012e0 <osKernelInitialize>
 8000670:	f7ff ffda 	bl	8000628 <set_stack_heap>
 8000674:	4803      	ldr	r0, [pc, #12]	; (8000684 <software_init_hook_rtos+0x18>)
 8000676:	2100      	movs	r1, #0
 8000678:	f000 fdd6 	bl	8001228 <osThreadCreate>
 800067c:	f000 fc2e 	bl	8000edc <osKernelStart>
 8000680:	e7fe      	b.n	8000680 <software_init_hook_rtos+0x14>
 8000682:	0000      	.short	0x0000
 8000684:	20000190 	.word	0x20000190

08000688 <__rtos_malloc_lock>:
 8000688:	4b02      	ldr	r3, [pc, #8]	; (8000694 <__rtos_malloc_lock+0xc>)
 800068a:	f04f 31ff 	mov.w	r1, #4294967295	; 0xffffffff
 800068e:	6818      	ldr	r0, [r3, #0]
 8000690:	f000 bd60 	b.w	8001154 <osMutexWait>
 8000694:	2000051c 	.word	0x2000051c

08000698 <__rtos_malloc_unlock>:
 8000698:	4b01      	ldr	r3, [pc, #4]	; (80006a0 <__rtos_malloc_unlock+0x8>)
 800069a:	6818      	ldr	r0, [r3, #0]
 800069c:	f000 bd82 	b.w	80011a4 <osMutexRelease>
 80006a0:	2000051c 	.word	0x2000051c

080006a4 <rt_put_prio>:
 80006a4:	b530      	push	{r4, r5, lr}
 80006a6:	7802      	ldrb	r2, [r0, #0]
 80006a8:	788c      	ldrb	r4, [r1, #2]
 80006aa:	6843      	ldr	r3, [r0, #4]
 80006ac:	3a01      	subs	r2, #1
 80006ae:	b2d2      	uxtb	r2, r2
 80006b0:	b113      	cbz	r3, 80006b8 <rt_put_prio+0x14>
 80006b2:	789d      	ldrb	r5, [r3, #2]
 80006b4:	42a5      	cmp	r5, r4
 80006b6:	d207      	bcs.n	80006c8 <rt_put_prio+0x24>
 80006b8:	2a02      	cmp	r2, #2
 80006ba:	604b      	str	r3, [r1, #4]
 80006bc:	6041      	str	r1, [r0, #4]
 80006be:	d806      	bhi.n	80006ce <rt_put_prio+0x2a>
 80006c0:	b103      	cbz	r3, 80006c4 <rt_put_prio+0x20>
 80006c2:	6099      	str	r1, [r3, #8]
 80006c4:	6088      	str	r0, [r1, #8]
 80006c6:	bd30      	pop	{r4, r5, pc}
 80006c8:	4618      	mov	r0, r3
 80006ca:	685b      	ldr	r3, [r3, #4]
 80006cc:	e7f0      	b.n	80006b0 <rt_put_prio+0xc>
 80006ce:	2300      	movs	r3, #0
 80006d0:	608b      	str	r3, [r1, #8]
 80006d2:	bd30      	pop	{r4, r5, pc}

080006d4 <rt_get_first>:
 80006d4:	7802      	ldrb	r2, [r0, #0]
 80006d6:	6843      	ldr	r3, [r0, #4]
 80006d8:	3a01      	subs	r2, #1
 80006da:	6859      	ldr	r1, [r3, #4]
 80006dc:	6041      	str	r1, [r0, #4]
 80006de:	2a02      	cmp	r2, #2
 80006e0:	f04f 0200 	mov.w	r2, #0
 80006e4:	d805      	bhi.n	80006f2 <rt_get_first+0x1e>
 80006e6:	b109      	cbz	r1, 80006ec <rt_get_first+0x18>
 80006e8:	6088      	str	r0, [r1, #8]
 80006ea:	605a      	str	r2, [r3, #4]
 80006ec:	609a      	str	r2, [r3, #8]
 80006ee:	4618      	mov	r0, r3
 80006f0:	4770      	bx	lr
 80006f2:	605a      	str	r2, [r3, #4]
 80006f4:	e7fb      	b.n	80006ee <rt_get_first+0x1a>
	...

080006f8 <rt_put_rdy_first>:
 80006f8:	4b03      	ldr	r3, [pc, #12]	; (8000708 <rt_put_rdy_first+0x10>)
 80006fa:	685a      	ldr	r2, [r3, #4]
 80006fc:	6042      	str	r2, [r0, #4]
 80006fe:	2200      	movs	r2, #0
 8000700:	6082      	str	r2, [r0, #8]
 8000702:	6058      	str	r0, [r3, #4]
 8000704:	4770      	bx	lr
 8000706:	bf00      	nop
 8000708:	20001988 	.word	0x20001988

0800070c <rt_put_dly>:
 800070c:	4b10      	ldr	r3, [pc, #64]	; (8000750 <rt_put_dly+0x44>)
 800070e:	68da      	ldr	r2, [r3, #12]
 8000710:	b510      	push	{r4, lr}
 8000712:	b18a      	cbz	r2, 8000738 <rt_put_dly+0x2c>
 8000714:	8a9a      	ldrh	r2, [r3, #20]
 8000716:	68dc      	ldr	r4, [r3, #12]
 8000718:	428a      	cmp	r2, r1
 800071a:	d30c      	bcc.n	8000736 <rt_put_dly+0x2a>
 800071c:	60c4      	str	r4, [r0, #12]
 800071e:	60d8      	str	r0, [r3, #12]
 8000720:	68c4      	ldr	r4, [r0, #12]
 8000722:	6103      	str	r3, [r0, #16]
 8000724:	b104      	cbz	r4, 8000728 <rt_put_dly+0x1c>
 8000726:	6120      	str	r0, [r4, #16]
 8000728:	1a52      	subs	r2, r2, r1
 800072a:	b292      	uxth	r2, r2
 800072c:	8282      	strh	r2, [r0, #20]
 800072e:	8a99      	ldrh	r1, [r3, #20]
 8000730:	1a8a      	subs	r2, r1, r2
 8000732:	829a      	strh	r2, [r3, #20]
 8000734:	bd10      	pop	{r4, pc}
 8000736:	b93c      	cbnz	r4, 8000748 <rt_put_dly+0x3c>
 8000738:	2400      	movs	r4, #0
 800073a:	1a8a      	subs	r2, r1, r2
 800073c:	60c4      	str	r4, [r0, #12]
 800073e:	60d8      	str	r0, [r3, #12]
 8000740:	6103      	str	r3, [r0, #16]
 8000742:	829a      	strh	r2, [r3, #20]
 8000744:	8284      	strh	r4, [r0, #20]
 8000746:	bd10      	pop	{r4, pc}
 8000748:	8aa3      	ldrh	r3, [r4, #20]
 800074a:	441a      	add	r2, r3
 800074c:	4623      	mov	r3, r4
 800074e:	e7e2      	b.n	8000716 <rt_put_dly+0xa>
 8000750:	200019a0 	.word	0x200019a0

08000754 <rt_dec_dly>:
 8000754:	e92d 41f0 	stmdb	sp!, {r4, r5, r6, r7, r8, lr}
 8000758:	4d17      	ldr	r5, [pc, #92]	; (80007b8 <rt_dec_dly+0x64>)
 800075a:	68eb      	ldr	r3, [r5, #12]
 800075c:	b153      	cbz	r3, 8000774 <rt_dec_dly+0x20>
 800075e:	8aab      	ldrh	r3, [r5, #20]
 8000760:	4f16      	ldr	r7, [pc, #88]	; (80007bc <rt_dec_dly+0x68>)
 8000762:	f8df 805c 	ldr.w	r8, [pc, #92]	; 80007c0 <rt_dec_dly+0x6c>
 8000766:	3b01      	subs	r3, #1
 8000768:	82ab      	strh	r3, [r5, #20]
 800076a:	2600      	movs	r6, #0
 800076c:	8aaa      	ldrh	r2, [r5, #20]
 800076e:	b90a      	cbnz	r2, 8000774 <rt_dec_dly+0x20>
 8000770:	68ec      	ldr	r4, [r5, #12]
 8000772:	b90c      	cbnz	r4, 8000778 <rt_dec_dly+0x24>
 8000774:	e8bd 81f0 	ldmia.w	sp!, {r4, r5, r6, r7, r8, pc}
 8000778:	68a3      	ldr	r3, [r4, #8]
 800077a:	b133      	cbz	r3, 800078a <rt_dec_dly+0x36>
 800077c:	6861      	ldr	r1, [r4, #4]
 800077e:	6059      	str	r1, [r3, #4]
 8000780:	6861      	ldr	r1, [r4, #4]
 8000782:	b109      	cbz	r1, 8000788 <rt_dec_dly+0x34>
 8000784:	608b      	str	r3, [r1, #8]
 8000786:	6062      	str	r2, [r4, #4]
 8000788:	60a6      	str	r6, [r4, #8]
 800078a:	4621      	mov	r1, r4
 800078c:	4638      	mov	r0, r7
 800078e:	f7ff ff89 	bl	80006a4 <rt_put_prio>
 8000792:	8aa3      	ldrh	r3, [r4, #20]
 8000794:	82ab      	strh	r3, [r5, #20]
 8000796:	7863      	ldrb	r3, [r4, #1]
 8000798:	2b04      	cmp	r3, #4
 800079a:	bf01      	itttt	eq
 800079c:	f8d8 3000 	ldreq.w	r3, [r8]
 80007a0:	8ae2      	ldrheq	r2, [r4, #22]
 80007a2:	189b      	addeq	r3, r3, r2
 80007a4:	82a3      	strheq	r3, [r4, #20]
 80007a6:	2301      	movs	r3, #1
 80007a8:	7063      	strb	r3, [r4, #1]
 80007aa:	68e3      	ldr	r3, [r4, #12]
 80007ac:	60eb      	str	r3, [r5, #12]
 80007ae:	b10b      	cbz	r3, 80007b4 <rt_dec_dly+0x60>
 80007b0:	611d      	str	r5, [r3, #16]
 80007b2:	60e6      	str	r6, [r4, #12]
 80007b4:	6126      	str	r6, [r4, #16]
 80007b6:	e7d9      	b.n	800076c <rt_dec_dly+0x18>
 80007b8:	200019a0 	.word	0x200019a0
 80007bc:	20001988 	.word	0x20001988
 80007c0:	20001a1c 	.word	0x20001a1c

080007c4 <rt_rmv_list>:
 80007c4:	6883      	ldr	r3, [r0, #8]
 80007c6:	b12b      	cbz	r3, 80007d4 <rt_rmv_list+0x10>
 80007c8:	6842      	ldr	r2, [r0, #4]
 80007ca:	605a      	str	r2, [r3, #4]
 80007cc:	6842      	ldr	r2, [r0, #4]
 80007ce:	b15a      	cbz	r2, 80007e8 <rt_rmv_list+0x24>
 80007d0:	6093      	str	r3, [r2, #8]
 80007d2:	4770      	bx	lr
 80007d4:	4b05      	ldr	r3, [pc, #20]	; (80007ec <rt_rmv_list+0x28>)
 80007d6:	685a      	ldr	r2, [r3, #4]
 80007d8:	4290      	cmp	r0, r2
 80007da:	d102      	bne.n	80007e2 <rt_rmv_list+0x1e>
 80007dc:	6842      	ldr	r2, [r0, #4]
 80007de:	605a      	str	r2, [r3, #4]
 80007e0:	4770      	bx	lr
 80007e2:	4613      	mov	r3, r2
 80007e4:	2a00      	cmp	r2, #0
 80007e6:	d1f6      	bne.n	80007d6 <rt_rmv_list+0x12>
 80007e8:	4770      	bx	lr
 80007ea:	bf00      	nop
 80007ec:	20001988 	.word	0x20001988

080007f0 <rt_resort_prio>:
 80007f0:	b510      	push	{r4, lr}
 80007f2:	6884      	ldr	r4, [r0, #8]
 80007f4:	4601      	mov	r1, r0
 80007f6:	b92c      	cbnz	r4, 8000804 <rt_resort_prio+0x14>
 80007f8:	7843      	ldrb	r3, [r0, #1]
 80007fa:	2b01      	cmp	r3, #1
 80007fc:	d10d      	bne.n	800081a <rt_resort_prio+0x2a>
 80007fe:	4c07      	ldr	r4, [pc, #28]	; (800081c <rt_resort_prio+0x2c>)
 8000800:	e003      	b.n	800080a <rt_resort_prio+0x1a>
 8000802:	68a4      	ldr	r4, [r4, #8]
 8000804:	7823      	ldrb	r3, [r4, #0]
 8000806:	2b00      	cmp	r3, #0
 8000808:	d0fb      	beq.n	8000802 <rt_resort_prio+0x12>
 800080a:	4608      	mov	r0, r1
 800080c:	f7ff ffda 	bl	80007c4 <rt_rmv_list>
 8000810:	4620      	mov	r0, r4
 8000812:	e8bd 4010 	ldmia.w	sp!, {r4, lr}
 8000816:	f7ff bf45 	b.w	80006a4 <rt_put_prio>
 800081a:	bd10      	pop	{r4, pc}
 800081c:	20001988 	.word	0x20001988

08000820 <rt_rmv_dly>:
 8000820:	6903      	ldr	r3, [r0, #16]
 8000822:	b510      	push	{r4, lr}
 8000824:	b163      	cbz	r3, 8000840 <rt_rmv_dly+0x20>
 8000826:	68c2      	ldr	r2, [r0, #12]
 8000828:	60da      	str	r2, [r3, #12]
 800082a:	68c2      	ldr	r2, [r0, #12]
 800082c:	b14a      	cbz	r2, 8000842 <rt_rmv_dly+0x22>
 800082e:	8a99      	ldrh	r1, [r3, #20]
 8000830:	8a84      	ldrh	r4, [r0, #20]
 8000832:	4421      	add	r1, r4
 8000834:	8299      	strh	r1, [r3, #20]
 8000836:	6113      	str	r3, [r2, #16]
 8000838:	2300      	movs	r3, #0
 800083a:	60c3      	str	r3, [r0, #12]
 800083c:	2300      	movs	r3, #0
 800083e:	6103      	str	r3, [r0, #16]
 8000840:	bd10      	pop	{r4, pc}
 8000842:	829a      	strh	r2, [r3, #20]
 8000844:	e7fa      	b.n	800083c <rt_rmv_dly+0x1c>
	...

08000848 <rt_psq_enq>:
 8000848:	b470      	push	{r4, r5, r6}
 800084a:	4b11      	ldr	r3, [pc, #68]	; (8000890 <rt_psq_enq+0x48>)
 800084c:	78dd      	ldrb	r5, [r3, #3]
 800084e:	f3ef 8610 	mrs	r6, PRIMASK
 8000852:	f3ef 8210 	mrs	r2, PRIMASK
 8000856:	b672      	cpsid	i
 8000858:	789a      	ldrb	r2, [r3, #2]
 800085a:	4295      	cmp	r5, r2
 800085c:	d911      	bls.n	8000882 <rt_psq_enq+0x3a>
 800085e:	3201      	adds	r2, #1
 8000860:	709a      	strb	r2, [r3, #2]
 8000862:	781a      	ldrb	r2, [r3, #0]
 8000864:	1c54      	adds	r4, r2, #1
 8000866:	42a5      	cmp	r5, r4
 8000868:	bf08      	it	eq
 800086a:	2400      	moveq	r4, #0
 800086c:	701c      	strb	r4, [r3, #0]
 800086e:	b906      	cbnz	r6, 8000872 <rt_psq_enq+0x2a>
 8000870:	b662      	cpsie	i
 8000872:	4295      	cmp	r5, r2
 8000874:	d907      	bls.n	8000886 <rt_psq_enq+0x3e>
 8000876:	eb03 03c2 	add.w	r3, r3, r2, lsl #3
 800087a:	bc70      	pop	{r4, r5, r6}
 800087c:	6058      	str	r0, [r3, #4]
 800087e:	6099      	str	r1, [r3, #8]
 8000880:	4770      	bx	lr
 8000882:	2e00      	cmp	r6, #0
 8000884:	d0f4      	beq.n	8000870 <rt_psq_enq+0x28>
 8000886:	2002      	movs	r0, #2
 8000888:	bc70      	pop	{r4, r5, r6}
 800088a:	f7ff bebd 	b.w	8000608 <os_error>
 800088e:	bf00      	nop
 8000890:	2000140c 	.word	0x2000140c

08000894 <rt_psh_req>:
 8000894:	4b05      	ldr	r3, [pc, #20]	; (80008ac <rt_psh_req+0x18>)
 8000896:	781b      	ldrb	r3, [r3, #0]
 8000898:	b923      	cbnz	r3, 80008a4 <rt_psh_req+0x10>
 800089a:	4b05      	ldr	r3, [pc, #20]	; (80008b0 <rt_psh_req+0x1c>)
 800089c:	f04f 5280 	mov.w	r2, #268435456	; 0x10000000
 80008a0:	601a      	str	r2, [r3, #0]
 80008a2:	4770      	bx	lr
 80008a4:	4b03      	ldr	r3, [pc, #12]	; (80008b4 <rt_psh_req+0x20>)
 80008a6:	2201      	movs	r2, #1
 80008a8:	701a      	strb	r2, [r3, #0]
 80008aa:	4770      	bx	lr
 80008ac:	20000d78 	.word	0x20000d78
 80008b0:	e000ed04 	.word	0xe000ed04
 80008b4:	20000d79 	.word	0x20000d79

080008b8 <rt_pop_req>:
 80008b8:	b538      	push	{r3, r4, r5, lr}
 80008ba:	4b1a      	ldr	r3, [pc, #104]	; (8000924 <rt_pop_req+0x6c>)
 80008bc:	4c1a      	ldr	r4, [pc, #104]	; (8000928 <rt_pop_req+0x70>)
 80008be:	6818      	ldr	r0, [r3, #0]
 80008c0:	2301      	movs	r3, #1
 80008c2:	7043      	strb	r3, [r0, #1]
 80008c4:	f7ff ff18 	bl	80006f8 <rt_put_rdy_first>
 80008c8:	7865      	ldrb	r5, [r4, #1]
 80008ca:	78a3      	ldrb	r3, [r4, #2]
 80008cc:	b93b      	cbnz	r3, 80008de <rt_pop_req+0x26>
 80008ce:	4817      	ldr	r0, [pc, #92]	; (800092c <rt_pop_req+0x74>)
 80008d0:	7065      	strb	r5, [r4, #1]
 80008d2:	f7ff feff 	bl	80006d4 <rt_get_first>
 80008d6:	e8bd 4038 	ldmia.w	sp!, {r3, r4, r5, lr}
 80008da:	f000 bddb 	b.w	8001494 <rt_switch_req>
 80008de:	eb04 03c5 	add.w	r3, r4, r5, lsl #3
 80008e2:	6858      	ldr	r0, [r3, #4]
 80008e4:	7802      	ldrb	r2, [r0, #0]
 80008e6:	b99a      	cbnz	r2, 8000910 <rt_pop_req+0x58>
 80008e8:	8919      	ldrh	r1, [r3, #8]
 80008ea:	f000 fa1b 	bl	8000d24 <rt_evt_psh>
 80008ee:	78e3      	ldrb	r3, [r4, #3]
 80008f0:	3501      	adds	r5, #1
 80008f2:	429d      	cmp	r5, r3
 80008f4:	bf08      	it	eq
 80008f6:	2500      	moveq	r5, #0
 80008f8:	f3ef 8310 	mrs	r3, PRIMASK
 80008fc:	f3ef 8210 	mrs	r2, PRIMASK
 8000900:	b672      	cpsid	i
 8000902:	78a2      	ldrb	r2, [r4, #2]
 8000904:	3a01      	subs	r2, #1
 8000906:	70a2      	strb	r2, [r4, #2]
 8000908:	2b00      	cmp	r3, #0
 800090a:	d1de      	bne.n	80008ca <rt_pop_req+0x12>
 800090c:	b662      	cpsie	i
 800090e:	e7dc      	b.n	80008ca <rt_pop_req+0x12>
 8000910:	2a01      	cmp	r2, #1
 8000912:	d103      	bne.n	800091c <rt_pop_req+0x64>
 8000914:	6899      	ldr	r1, [r3, #8]
 8000916:	f000 f993 	bl	8000c40 <rt_mbx_psh>
 800091a:	e7e8      	b.n	80008ee <rt_pop_req+0x36>
 800091c:	f001 f918 	bl	8001b50 <rt_sem_psh>
 8000920:	e7e5      	b.n	80008ee <rt_pop_req+0x36>
 8000922:	bf00      	nop
 8000924:	200019d4 	.word	0x200019d4
 8000928:	2000140c 	.word	0x2000140c
 800092c:	20001988 	.word	0x20001988

08000930 <os_tick_init>:
 8000930:	4b08      	ldr	r3, [pc, #32]	; (8000954 <os_tick_init+0x24>)
 8000932:	681a      	ldr	r2, [r3, #0]
 8000934:	4b08      	ldr	r3, [pc, #32]	; (8000958 <os_tick_init+0x28>)
 8000936:	601a      	str	r2, [r3, #0]
 8000938:	2200      	movs	r2, #0
 800093a:	605a      	str	r2, [r3, #4]
 800093c:	2207      	movs	r2, #7
 800093e:	f843 2c04 	str.w	r2, [r3, #-4]
 8000942:	4a06      	ldr	r2, [pc, #24]	; (800095c <os_tick_init+0x2c>)
 8000944:	6813      	ldr	r3, [r2, #0]
 8000946:	f043 437f 	orr.w	r3, r3, #4278190080	; 0xff000000
 800094a:	6013      	str	r3, [r2, #0]
 800094c:	f04f 30ff 	mov.w	r0, #4294967295	; 0xffffffff
 8000950:	4770      	bx	lr
 8000952:	bf00      	nop
 8000954:	08006414 	.word	0x08006414
 8000958:	e000e014 	.word	0xe000e014
 800095c:	e000ed20 	.word	0xe000ed20

08000960 <os_tick_irqack>:
 8000960:	4770      	bx	lr
	...

08000964 <rt_systick>:
 8000964:	b508      	push	{r3, lr}
 8000966:	4b0b      	ldr	r3, [pc, #44]	; (8000994 <rt_systick+0x30>)
 8000968:	6818      	ldr	r0, [r3, #0]
 800096a:	2301      	movs	r3, #1
 800096c:	7043      	strb	r3, [r0, #1]
 800096e:	f7ff fec3 	bl	80006f8 <rt_put_rdy_first>
 8000972:	f000 fa0d 	bl	8000d90 <rt_chk_robin>
 8000976:	4a08      	ldr	r2, [pc, #32]	; (8000998 <rt_systick+0x34>)
 8000978:	6813      	ldr	r3, [r2, #0]
 800097a:	3301      	adds	r3, #1
 800097c:	6013      	str	r3, [r2, #0]
 800097e:	f7ff fee9 	bl	8000754 <rt_dec_dly>
 8000982:	f000 fd0f 	bl	80013a4 <sysTimerTick>
 8000986:	4805      	ldr	r0, [pc, #20]	; (800099c <rt_systick+0x38>)
 8000988:	f7ff fea4 	bl	80006d4 <rt_get_first>
 800098c:	e8bd 4008 	ldmia.w	sp!, {r3, lr}
 8000990:	f000 bd80 	b.w	8001494 <rt_switch_req>
 8000994:	200019d4 	.word	0x200019d4
 8000998:	20001a1c 	.word	0x20001a1c
 800099c:	20001988 	.word	0x20001988

080009a0 <rt_stk_check>:
 80009a0:	4b06      	ldr	r3, [pc, #24]	; (80009bc <rt_stk_check+0x1c>)
 80009a2:	681a      	ldr	r2, [r3, #0]
 80009a4:	6b13      	ldr	r3, [r2, #48]	; 0x30
 80009a6:	6ad2      	ldr	r2, [r2, #44]	; 0x2c
 80009a8:	4293      	cmp	r3, r2
 80009aa:	d803      	bhi.n	80009b4 <rt_stk_check+0x14>
 80009ac:	681a      	ldr	r2, [r3, #0]
 80009ae:	4b04      	ldr	r3, [pc, #16]	; (80009c0 <rt_stk_check+0x20>)
 80009b0:	429a      	cmp	r2, r3
 80009b2:	d002      	beq.n	80009ba <rt_stk_check+0x1a>
 80009b4:	2001      	movs	r0, #1
 80009b6:	f7ff be27 	b.w	8000608 <os_error>
 80009ba:	4770      	bx	lr
 80009bc:	200019d4 	.word	0x200019d4
 80009c0:	e25a2ea5 	.word	0xe25a2ea5

080009c4 <rt_init_stack>:
 80009c4:	6a83      	ldr	r3, [r0, #40]	; 0x28
 80009c6:	089b      	lsrs	r3, r3, #2
 80009c8:	bf04      	itt	eq
 80009ca:	4b22      	ldreq	r3, [pc, #136]	; (8000a54 <rt_init_stack+0x90>)
 80009cc:	881b      	ldrheq	r3, [r3, #0]
 80009ce:	b5f0      	push	{r4, r5, r6, r7, lr}
 80009d0:	6b05      	ldr	r5, [r0, #48]	; 0x30
 80009d2:	bf08      	it	eq
 80009d4:	089b      	lsreq	r3, r3, #2
 80009d6:	eb05 0283 	add.w	r2, r5, r3, lsl #2
 80009da:	0754      	lsls	r4, r2, #29
 80009dc:	bf48      	it	mi
 80009de:	3a04      	submi	r2, #4
 80009e0:	f04f 7680 	mov.w	r6, #16777216	; 0x1000000
 80009e4:	e902 0042 	stmdb	r2, {r1, r6}
 80009e8:	f1a2 0440 	sub.w	r4, r2, #64	; 0x40
 80009ec:	f1a2 0644 	sub.w	r6, r2, #68	; 0x44
 80009f0:	f1a2 070c 	sub.w	r7, r2, #12
 80009f4:	f04f 0e00 	mov.w	lr, #0
 80009f8:	f846 ef04 	str.w	lr, [r6, #4]!
 80009fc:	42be      	cmp	r6, r7
 80009fe:	d1fb      	bne.n	80009f8 <rt_init_stack+0x34>
 8000a00:	69c6      	ldr	r6, [r0, #28]
 8000a02:	f842 6c20 	str.w	r6, [r2, #-32]
 8000a06:	6341      	str	r1, [r0, #52]	; 0x34
 8000a08:	4912      	ldr	r1, [pc, #72]	; (8000a54 <rt_init_stack+0x90>)
 8000a0a:	62c4      	str	r4, [r0, #44]	; 0x2c
 8000a0c:	6809      	ldr	r1, [r1, #0]
 8000a0e:	00c9      	lsls	r1, r1, #3
 8000a10:	d517      	bpl.n	8000a42 <rt_init_stack+0x7e>
 8000a12:	2b11      	cmp	r3, #17
 8000a14:	d915      	bls.n	8000a42 <rt_init_stack+0x7e>
 8000a16:	3b10      	subs	r3, #16
 8000a18:	f06f 0107 	mvn.w	r1, #7
 8000a1c:	085b      	lsrs	r3, r3, #1
 8000a1e:	434b      	muls	r3, r1
 8000a20:	f1a3 0138 	sub.w	r1, r3, #56	; 0x38
 8000a24:	440a      	add	r2, r1
 8000a26:	f04f 30cc 	mov.w	r0, #3435973836	; 0xcccccccc
 8000a2a:	4621      	mov	r1, r4
 8000a2c:	4291      	cmp	r1, r2
 8000a2e:	d10b      	bne.n	8000a48 <rt_init_stack+0x84>
 8000a30:	3308      	adds	r3, #8
 8000a32:	441c      	add	r4, r3
 8000a34:	1f23      	subs	r3, r4, #4
 8000a36:	429d      	cmp	r5, r3
 8000a38:	bf3c      	itt	cc
 8000a3a:	f04f 33cc 	movcc.w	r3, #3435973836	; 0xcccccccc
 8000a3e:	f844 3c04 	strcc.w	r3, [r4, #-4]
 8000a42:	4b05      	ldr	r3, [pc, #20]	; (8000a58 <rt_init_stack+0x94>)
 8000a44:	602b      	str	r3, [r5, #0]
 8000a46:	bdf0      	pop	{r4, r5, r6, r7, pc}
 8000a48:	f841 0c04 	str.w	r0, [r1, #-4]
 8000a4c:	f841 0d08 	str.w	r0, [r1, #-8]!
 8000a50:	e7ec      	b.n	8000a2c <rt_init_stack+0x68>
 8000a52:	bf00      	nop
 8000a54:	080063fc 	.word	0x080063fc
 8000a58:	e25a2ea5 	.word	0xe25a2ea5

08000a5c <rt_ret_val>:
 8000a5c:	f890 2025 	ldrb.w	r2, [r0, #37]	; 0x25
 8000a60:	6ac3      	ldr	r3, [r0, #44]	; 0x2c
 8000a62:	b112      	cbz	r2, 8000a6a <rt_ret_val+0xe>
 8000a64:	3360      	adds	r3, #96	; 0x60
 8000a66:	6019      	str	r1, [r3, #0]
 8000a68:	4770      	bx	lr
 8000a6a:	3320      	adds	r3, #32
 8000a6c:	e7fb      	b.n	8000a66 <rt_ret_val+0xa>

08000a6e <rt_ret_val2>:
 8000a6e:	b510      	push	{r4, lr}
 8000a70:	f890 4025 	ldrb.w	r4, [r0, #37]	; 0x25
 8000a74:	6ac3      	ldr	r3, [r0, #44]	; 0x2c
 8000a76:	b11c      	cbz	r4, 8000a80 <rt_ret_val2+0x12>
 8000a78:	3360      	adds	r3, #96	; 0x60
 8000a7a:	e883 0006 	stmia.w	r3, {r1, r2}
 8000a7e:	bd10      	pop	{r4, pc}
 8000a80:	3320      	adds	r3, #32
 8000a82:	e7fa      	b.n	8000a7a <rt_ret_val2+0xc>

08000a84 <_init_box>:
 8000a84:	2a00      	cmp	r2, #0
 8000a86:	bfbb      	ittet	lt
 8000a88:	f022 4200 	biclt.w	r2, r2, #2147483648	; 0x80000000
 8000a8c:	3207      	addlt	r2, #7
 8000a8e:	3203      	addge	r2, #3
 8000a90:	f022 0207 	biclt.w	r2, r2, #7
 8000a94:	bfa8      	it	ge
 8000a96:	f022 0203 	bicge.w	r2, r2, #3
 8000a9a:	b510      	push	{r4, lr}
 8000a9c:	bfb4      	ite	lt
 8000a9e:	2310      	movlt	r3, #16
 8000aa0:	230c      	movge	r3, #12
 8000aa2:	b192      	cbz	r2, 8000aca <_init_box+0x46>
 8000aa4:	18d4      	adds	r4, r2, r3
 8000aa6:	428c      	cmp	r4, r1
 8000aa8:	d80f      	bhi.n	8000aca <_init_box+0x46>
 8000aaa:	4401      	add	r1, r0
 8000aac:	4403      	add	r3, r0
 8000aae:	4254      	negs	r4, r2
 8000ab0:	6041      	str	r1, [r0, #4]
 8000ab2:	6003      	str	r3, [r0, #0]
 8000ab4:	6082      	str	r2, [r0, #8]
 8000ab6:	4421      	add	r1, r4
 8000ab8:	1898      	adds	r0, r3, r2
 8000aba:	4281      	cmp	r1, r0
 8000abc:	d302      	bcc.n	8000ac4 <_init_box+0x40>
 8000abe:	5100      	str	r0, [r0, r4]
 8000ac0:	4603      	mov	r3, r0
 8000ac2:	e7f9      	b.n	8000ab8 <_init_box+0x34>
 8000ac4:	2000      	movs	r0, #0
 8000ac6:	6018      	str	r0, [r3, #0]
 8000ac8:	bd10      	pop	{r4, pc}
 8000aca:	2001      	movs	r0, #1
 8000acc:	bd10      	pop	{r4, pc}

08000ace <rt_alloc_box>:
 8000ace:	f3ef 8310 	mrs	r3, PRIMASK
 8000ad2:	b672      	cpsid	i
 8000ad4:	6802      	ldr	r2, [r0, #0]
 8000ad6:	f003 0301 	and.w	r3, r3, #1
 8000ada:	b10a      	cbz	r2, 8000ae0 <rt_alloc_box+0x12>
 8000adc:	6811      	ldr	r1, [r2, #0]
 8000ade:	6001      	str	r1, [r0, #0]
 8000ae0:	b903      	cbnz	r3, 8000ae4 <rt_alloc_box+0x16>
 8000ae2:	b662      	cpsie	i
 8000ae4:	4610      	mov	r0, r2
 8000ae6:	4770      	bx	lr

08000ae8 <rt_free_box>:
 8000ae8:	4281      	cmp	r1, r0
 8000aea:	d30d      	bcc.n	8000b08 <rt_free_box+0x20>
 8000aec:	6843      	ldr	r3, [r0, #4]
 8000aee:	4299      	cmp	r1, r3
 8000af0:	d20a      	bcs.n	8000b08 <rt_free_box+0x20>
 8000af2:	f3ef 8310 	mrs	r3, PRIMASK
 8000af6:	b672      	cpsid	i
 8000af8:	6802      	ldr	r2, [r0, #0]
 8000afa:	600a      	str	r2, [r1, #0]
 8000afc:	6001      	str	r1, [r0, #0]
 8000afe:	f013 0001 	ands.w	r0, r3, #1
 8000b02:	d103      	bne.n	8000b0c <rt_free_box+0x24>
 8000b04:	b662      	cpsie	i
 8000b06:	4770      	bx	lr
 8000b08:	2001      	movs	r0, #1
 8000b0a:	4770      	bx	lr
 8000b0c:	2000      	movs	r0, #0
 8000b0e:	4770      	bx	lr

08000b10 <rt_mbx_init>:
 8000b10:	2301      	movs	r3, #1
 8000b12:	3910      	subs	r1, #16
 8000b14:	7003      	strb	r3, [r0, #0]
 8000b16:	0889      	lsrs	r1, r1, #2
 8000b18:	2300      	movs	r3, #0
 8000b1a:	7043      	strb	r3, [r0, #1]
 8000b1c:	7083      	strb	r3, [r0, #2]
 8000b1e:	6043      	str	r3, [r0, #4]
 8000b20:	8103      	strh	r3, [r0, #8]
 8000b22:	8143      	strh	r3, [r0, #10]
 8000b24:	8183      	strh	r3, [r0, #12]
 8000b26:	81c1      	strh	r1, [r0, #14]
 8000b28:	4770      	bx	lr
	...

08000b2c <rt_mbx_wait>:
 8000b2c:	b570      	push	{r4, r5, r6, lr}
 8000b2e:	8985      	ldrh	r5, [r0, #12]
 8000b30:	4604      	mov	r4, r0
 8000b32:	4616      	mov	r6, r2
 8000b34:	2d00      	cmp	r5, #0
 8000b36:	d038      	beq.n	8000baa <rt_mbx_wait+0x7e>
 8000b38:	8943      	ldrh	r3, [r0, #10]
 8000b3a:	1d1a      	adds	r2, r3, #4
 8000b3c:	3301      	adds	r3, #1
 8000b3e:	f850 2022 	ldr.w	r2, [r0, r2, lsl #2]
 8000b42:	600a      	str	r2, [r1, #0]
 8000b44:	89c2      	ldrh	r2, [r0, #14]
 8000b46:	b29b      	uxth	r3, r3
 8000b48:	429a      	cmp	r2, r3
 8000b4a:	8143      	strh	r3, [r0, #10]
 8000b4c:	bf04      	itt	eq
 8000b4e:	2300      	moveq	r3, #0
 8000b50:	8143      	strheq	r3, [r0, #10]
 8000b52:	6843      	ldr	r3, [r0, #4]
 8000b54:	b1f3      	cbz	r3, 8000b94 <rt_mbx_wait+0x68>
 8000b56:	7843      	ldrb	r3, [r0, #1]
 8000b58:	2b02      	cmp	r3, #2
 8000b5a:	d11b      	bne.n	8000b94 <rt_mbx_wait+0x68>
 8000b5c:	f7ff fdba 	bl	80006d4 <rt_get_first>
 8000b60:	2100      	movs	r1, #0
 8000b62:	4605      	mov	r5, r0
 8000b64:	f7ff ff7a 	bl	8000a5c <rt_ret_val>
 8000b68:	8923      	ldrh	r3, [r4, #8]
 8000b6a:	69e9      	ldr	r1, [r5, #28]
 8000b6c:	1d1a      	adds	r2, r3, #4
 8000b6e:	3301      	adds	r3, #1
 8000b70:	f844 1022 	str.w	r1, [r4, r2, lsl #2]
 8000b74:	89e2      	ldrh	r2, [r4, #14]
 8000b76:	b29b      	uxth	r3, r3
 8000b78:	429a      	cmp	r2, r3
 8000b7a:	8123      	strh	r3, [r4, #8]
 8000b7c:	bf08      	it	eq
 8000b7e:	2300      	moveq	r3, #0
 8000b80:	4628      	mov	r0, r5
 8000b82:	bf08      	it	eq
 8000b84:	8123      	strheq	r3, [r4, #8]
 8000b86:	f7ff fe4b 	bl	8000820 <rt_rmv_dly>
 8000b8a:	4628      	mov	r0, r5
 8000b8c:	f000 fc9c 	bl	80014c8 <rt_dispatch>
 8000b90:	2000      	movs	r0, #0
 8000b92:	bd70      	pop	{r4, r5, r6, pc}
 8000b94:	f3ef 8010 	mrs	r0, PRIMASK
 8000b98:	f3ef 8310 	mrs	r3, PRIMASK
 8000b9c:	b672      	cpsid	i
 8000b9e:	3d01      	subs	r5, #1
 8000ba0:	81a5      	strh	r5, [r4, #12]
 8000ba2:	2800      	cmp	r0, #0
 8000ba4:	d1f4      	bne.n	8000b90 <rt_mbx_wait+0x64>
 8000ba6:	b662      	cpsie	i
 8000ba8:	bd70      	pop	{r4, r5, r6, pc}
 8000baa:	b14a      	cbz	r2, 8000bc0 <rt_mbx_wait+0x94>
 8000bac:	6842      	ldr	r2, [r0, #4]
 8000bae:	4b09      	ldr	r3, [pc, #36]	; (8000bd4 <rt_mbx_wait+0xa8>)
 8000bb0:	b142      	cbz	r2, 8000bc4 <rt_mbx_wait+0x98>
 8000bb2:	6819      	ldr	r1, [r3, #0]
 8000bb4:	f7ff fd76 	bl	80006a4 <rt_put_prio>
 8000bb8:	2108      	movs	r1, #8
 8000bba:	4630      	mov	r0, r6
 8000bbc:	f000 fca8 	bl	8001510 <rt_block>
 8000bc0:	2001      	movs	r0, #1
 8000bc2:	bd70      	pop	{r4, r5, r6, pc}
 8000bc4:	681b      	ldr	r3, [r3, #0]
 8000bc6:	6043      	str	r3, [r0, #4]
 8000bc8:	605a      	str	r2, [r3, #4]
 8000bca:	6098      	str	r0, [r3, #8]
 8000bcc:	2301      	movs	r3, #1
 8000bce:	7043      	strb	r3, [r0, #1]
 8000bd0:	e7f2      	b.n	8000bb8 <rt_mbx_wait+0x8c>
 8000bd2:	bf00      	nop
 8000bd4:	200019d4 	.word	0x200019d4

08000bd8 <rt_mbx_check>:
 8000bd8:	89c2      	ldrh	r2, [r0, #14]
 8000bda:	8980      	ldrh	r0, [r0, #12]
 8000bdc:	1a10      	subs	r0, r2, r0
 8000bde:	4770      	bx	lr

08000be0 <isr_mbx_send>:
 8000be0:	b508      	push	{r3, lr}
 8000be2:	f7ff fe31 	bl	8000848 <rt_psq_enq>
 8000be6:	e8bd 4008 	ldmia.w	sp!, {r3, lr}
 8000bea:	f7ff be53 	b.w	8000894 <rt_psh_req>

08000bee <isr_mbx_receive>:
 8000bee:	8983      	ldrh	r3, [r0, #12]
 8000bf0:	b510      	push	{r4, lr}
 8000bf2:	4604      	mov	r4, r0
 8000bf4:	b30b      	cbz	r3, 8000c3a <isr_mbx_receive+0x4c>
 8000bf6:	8943      	ldrh	r3, [r0, #10]
 8000bf8:	3304      	adds	r3, #4
 8000bfa:	f850 3023 	ldr.w	r3, [r0, r3, lsl #2]
 8000bfe:	600b      	str	r3, [r1, #0]
 8000c00:	7843      	ldrb	r3, [r0, #1]
 8000c02:	2b02      	cmp	r3, #2
 8000c04:	d104      	bne.n	8000c10 <isr_mbx_receive+0x22>
 8000c06:	2100      	movs	r1, #0
 8000c08:	f7ff fe1e 	bl	8000848 <rt_psq_enq>
 8000c0c:	f7ff fe42 	bl	8000894 <rt_psh_req>
 8000c10:	f3ef 8310 	mrs	r3, PRIMASK
 8000c14:	f3ef 8210 	mrs	r2, PRIMASK
 8000c18:	b672      	cpsid	i
 8000c1a:	89a2      	ldrh	r2, [r4, #12]
 8000c1c:	3a01      	subs	r2, #1
 8000c1e:	81a2      	strh	r2, [r4, #12]
 8000c20:	b903      	cbnz	r3, 8000c24 <isr_mbx_receive+0x36>
 8000c22:	b662      	cpsie	i
 8000c24:	8963      	ldrh	r3, [r4, #10]
 8000c26:	89e2      	ldrh	r2, [r4, #14]
 8000c28:	3301      	adds	r3, #1
 8000c2a:	b29b      	uxth	r3, r3
 8000c2c:	429a      	cmp	r2, r3
 8000c2e:	8163      	strh	r3, [r4, #10]
 8000c30:	d101      	bne.n	8000c36 <isr_mbx_receive+0x48>
 8000c32:	2300      	movs	r3, #0
 8000c34:	8163      	strh	r3, [r4, #10]
 8000c36:	2004      	movs	r0, #4
 8000c38:	bd10      	pop	{r4, pc}
 8000c3a:	4618      	mov	r0, r3
 8000c3c:	bd10      	pop	{r4, pc}
	...

08000c40 <rt_mbx_psh>:
 8000c40:	6843      	ldr	r3, [r0, #4]
 8000c42:	b570      	push	{r4, r5, r6, lr}
 8000c44:	4604      	mov	r4, r0
 8000c46:	460e      	mov	r6, r1
 8000c48:	2b00      	cmp	r3, #0
 8000c4a:	d04b      	beq.n	8000ce4 <rt_mbx_psh+0xa4>
 8000c4c:	7845      	ldrb	r5, [r0, #1]
 8000c4e:	2d02      	cmp	r5, #2
 8000c50:	d020      	beq.n	8000c94 <rt_mbx_psh+0x54>
 8000c52:	2d03      	cmp	r5, #3
 8000c54:	d00a      	beq.n	8000c6c <rt_mbx_psh+0x2c>
 8000c56:	2d01      	cmp	r5, #1
 8000c58:	d161      	bne.n	8000d1e <rt_mbx_psh+0xde>
 8000c5a:	f7ff fd3b 	bl	80006d4 <rt_get_first>
 8000c5e:	4604      	mov	r4, r0
 8000c60:	4632      	mov	r2, r6
 8000c62:	2110      	movs	r1, #16
 8000c64:	f7ff ff03 	bl	8000a6e <rt_ret_val2>
 8000c68:	7065      	strb	r5, [r4, #1]
 8000c6a:	e00e      	b.n	8000c8a <rt_mbx_psh+0x4a>
 8000c6c:	4608      	mov	r0, r1
 8000c6e:	f7ff ff2e 	bl	8000ace <rt_alloc_box>
 8000c72:	4605      	mov	r5, r0
 8000c74:	2800      	cmp	r0, #0
 8000c76:	d052      	beq.n	8000d1e <rt_mbx_psh+0xde>
 8000c78:	4620      	mov	r0, r4
 8000c7a:	f7ff fd2b 	bl	80006d4 <rt_get_first>
 8000c7e:	4629      	mov	r1, r5
 8000c80:	4604      	mov	r4, r0
 8000c82:	f7ff feeb 	bl	8000a5c <rt_ret_val>
 8000c86:	2301      	movs	r3, #1
 8000c88:	7063      	strb	r3, [r4, #1]
 8000c8a:	4620      	mov	r0, r4
 8000c8c:	f7ff fdc8 	bl	8000820 <rt_rmv_dly>
 8000c90:	4621      	mov	r1, r4
 8000c92:	e022      	b.n	8000cda <rt_mbx_psh+0x9a>
 8000c94:	f7ff fd1e 	bl	80006d4 <rt_get_first>
 8000c98:	2100      	movs	r1, #0
 8000c9a:	4605      	mov	r5, r0
 8000c9c:	f7ff fede 	bl	8000a5c <rt_ret_val>
 8000ca0:	8923      	ldrh	r3, [r4, #8]
 8000ca2:	69e9      	ldr	r1, [r5, #28]
 8000ca4:	1d1a      	adds	r2, r3, #4
 8000ca6:	f844 1022 	str.w	r1, [r4, r2, lsl #2]
 8000caa:	f3ef 8210 	mrs	r2, PRIMASK
 8000cae:	f3ef 8110 	mrs	r1, PRIMASK
 8000cb2:	b672      	cpsid	i
 8000cb4:	89a1      	ldrh	r1, [r4, #12]
 8000cb6:	3101      	adds	r1, #1
 8000cb8:	81a1      	strh	r1, [r4, #12]
 8000cba:	b902      	cbnz	r2, 8000cbe <rt_mbx_psh+0x7e>
 8000cbc:	b662      	cpsie	i
 8000cbe:	89e2      	ldrh	r2, [r4, #14]
 8000cc0:	3301      	adds	r3, #1
 8000cc2:	b29b      	uxth	r3, r3
 8000cc4:	429a      	cmp	r2, r3
 8000cc6:	8123      	strh	r3, [r4, #8]
 8000cc8:	bf04      	itt	eq
 8000cca:	2300      	moveq	r3, #0
 8000ccc:	8123      	strheq	r3, [r4, #8]
 8000cce:	2301      	movs	r3, #1
 8000cd0:	706b      	strb	r3, [r5, #1]
 8000cd2:	4628      	mov	r0, r5
 8000cd4:	f7ff fda4 	bl	8000820 <rt_rmv_dly>
 8000cd8:	4629      	mov	r1, r5
 8000cda:	4811      	ldr	r0, [pc, #68]	; (8000d20 <rt_mbx_psh+0xe0>)
 8000cdc:	e8bd 4070 	ldmia.w	sp!, {r4, r5, r6, lr}
 8000ce0:	f7ff bce0 	b.w	80006a4 <rt_put_prio>
 8000ce4:	8980      	ldrh	r0, [r0, #12]
 8000ce6:	89e1      	ldrh	r1, [r4, #14]
 8000ce8:	4288      	cmp	r0, r1
 8000cea:	d213      	bcs.n	8000d14 <rt_mbx_psh+0xd4>
 8000cec:	8923      	ldrh	r3, [r4, #8]
 8000cee:	1d1a      	adds	r2, r3, #4
 8000cf0:	f844 6022 	str.w	r6, [r4, r2, lsl #2]
 8000cf4:	f3ef 8210 	mrs	r2, PRIMASK
 8000cf8:	f3ef 8510 	mrs	r5, PRIMASK
 8000cfc:	b672      	cpsid	i
 8000cfe:	3001      	adds	r0, #1
 8000d00:	81a0      	strh	r0, [r4, #12]
 8000d02:	b902      	cbnz	r2, 8000d06 <rt_mbx_psh+0xc6>
 8000d04:	b662      	cpsie	i
 8000d06:	3301      	adds	r3, #1
 8000d08:	b29b      	uxth	r3, r3
 8000d0a:	4299      	cmp	r1, r3
 8000d0c:	bf08      	it	eq
 8000d0e:	2300      	moveq	r3, #0
 8000d10:	8123      	strh	r3, [r4, #8]
 8000d12:	bd70      	pop	{r4, r5, r6, pc}
 8000d14:	2003      	movs	r0, #3
 8000d16:	e8bd 4070 	ldmia.w	sp!, {r4, r5, r6, lr}
 8000d1a:	f7ff bc75 	b.w	8000608 <os_error>
 8000d1e:	bd70      	pop	{r4, r5, r6, pc}
 8000d20:	20001988 	.word	0x20001988

08000d24 <rt_evt_psh>:
 8000d24:	b510      	push	{r4, lr}
 8000d26:	8b03      	ldrh	r3, [r0, #24]
 8000d28:	7842      	ldrb	r2, [r0, #1]
 8000d2a:	4319      	orrs	r1, r3
 8000d2c:	2a06      	cmp	r2, #6
 8000d2e:	4604      	mov	r4, r0
 8000d30:	8301      	strh	r1, [r0, #24]
 8000d32:	8b43      	ldrh	r3, [r0, #26]
 8000d34:	d115      	bne.n	8000d62 <rt_evt_psh+0x3e>
 8000d36:	ea33 0201 	bics.w	r2, r3, r1
 8000d3a:	d119      	bne.n	8000d70 <rt_evt_psh+0x4c>
 8000d3c:	ea21 0103 	bic.w	r1, r1, r3
 8000d40:	8321      	strh	r1, [r4, #24]
 8000d42:	4620      	mov	r0, r4
 8000d44:	f7ff fd6c 	bl	8000820 <rt_rmv_dly>
 8000d48:	2301      	movs	r3, #1
 8000d4a:	4620      	mov	r0, r4
 8000d4c:	7063      	strb	r3, [r4, #1]
 8000d4e:	8b62      	ldrh	r2, [r4, #26]
 8000d50:	2108      	movs	r1, #8
 8000d52:	f7ff fe8c 	bl	8000a6e <rt_ret_val2>
 8000d56:	4621      	mov	r1, r4
 8000d58:	4806      	ldr	r0, [pc, #24]	; (8000d74 <rt_evt_psh+0x50>)
 8000d5a:	e8bd 4010 	ldmia.w	sp!, {r4, lr}
 8000d5e:	f7ff bca1 	b.w	80006a4 <rt_put_prio>
 8000d62:	2a05      	cmp	r2, #5
 8000d64:	d104      	bne.n	8000d70 <rt_evt_psh+0x4c>
 8000d66:	ea11 0203 	ands.w	r2, r1, r3
 8000d6a:	d001      	beq.n	8000d70 <rt_evt_psh+0x4c>
 8000d6c:	8342      	strh	r2, [r0, #26]
 8000d6e:	e7e5      	b.n	8000d3c <rt_evt_psh+0x18>
 8000d70:	bd10      	pop	{r4, pc}
 8000d72:	bf00      	nop
 8000d74:	20001988 	.word	0x20001988

08000d78 <rt_init_robin>:
 8000d78:	4b03      	ldr	r3, [pc, #12]	; (8000d88 <rt_init_robin+0x10>)
 8000d7a:	2200      	movs	r2, #0
 8000d7c:	601a      	str	r2, [r3, #0]
 8000d7e:	4a03      	ldr	r2, [pc, #12]	; (8000d8c <rt_init_robin+0x14>)
 8000d80:	6812      	ldr	r2, [r2, #0]
 8000d82:	80da      	strh	r2, [r3, #6]
 8000d84:	4770      	bx	lr
 8000d86:	bf00      	nop
 8000d88:	200019c0 	.word	0x200019c0
 8000d8c:	080063f8 	.word	0x080063f8

08000d90 <rt_chk_robin>:
 8000d90:	b508      	push	{r3, lr}
 8000d92:	4b0e      	ldr	r3, [pc, #56]	; (8000dcc <rt_chk_robin+0x3c>)
 8000d94:	685a      	ldr	r2, [r3, #4]
 8000d96:	4b0e      	ldr	r3, [pc, #56]	; (8000dd0 <rt_chk_robin+0x40>)
 8000d98:	6819      	ldr	r1, [r3, #0]
 8000d9a:	4291      	cmp	r1, r2
 8000d9c:	490d      	ldr	r1, [pc, #52]	; (8000dd4 <rt_chk_robin+0x44>)
 8000d9e:	d005      	beq.n	8000dac <rt_chk_robin+0x1c>
 8000da0:	601a      	str	r2, [r3, #0]
 8000da2:	88da      	ldrh	r2, [r3, #6]
 8000da4:	6808      	ldr	r0, [r1, #0]
 8000da6:	3a01      	subs	r2, #1
 8000da8:	4402      	add	r2, r0
 8000daa:	809a      	strh	r2, [r3, #4]
 8000dac:	8898      	ldrh	r0, [r3, #4]
 8000dae:	880a      	ldrh	r2, [r1, #0]
 8000db0:	4290      	cmp	r0, r2
 8000db2:	d10a      	bne.n	8000dca <rt_chk_robin+0x3a>
 8000db4:	2200      	movs	r2, #0
 8000db6:	4805      	ldr	r0, [pc, #20]	; (8000dcc <rt_chk_robin+0x3c>)
 8000db8:	601a      	str	r2, [r3, #0]
 8000dba:	f7ff fc8b 	bl	80006d4 <rt_get_first>
 8000dbe:	e8bd 4008 	ldmia.w	sp!, {r3, lr}
 8000dc2:	4601      	mov	r1, r0
 8000dc4:	4801      	ldr	r0, [pc, #4]	; (8000dcc <rt_chk_robin+0x3c>)
 8000dc6:	f7ff bc6d 	b.w	80006a4 <rt_put_prio>
 8000dca:	bd08      	pop	{r3, pc}
 8000dcc:	20001988 	.word	0x20001988
 8000dd0:	200019c0 	.word	0x200019c0
 8000dd4:	20001a1c 	.word	0x20001a1c

08000dd8 <rt_timer_insert>:
 8000dd8:	4a0b      	ldr	r2, [pc, #44]	; (8000e08 <rt_timer_insert+0x30>)
 8000dda:	6813      	ldr	r3, [r2, #0]
 8000ddc:	b530      	push	{r4, r5, lr}
 8000dde:	2400      	movs	r4, #0
 8000de0:	b943      	cbnz	r3, 8000df4 <rt_timer_insert+0x1c>
 8000de2:	6003      	str	r3, [r0, #0]
 8000de4:	6081      	str	r1, [r0, #8]
 8000de6:	b113      	cbz	r3, 8000dee <rt_timer_insert+0x16>
 8000de8:	689d      	ldr	r5, [r3, #8]
 8000dea:	1a69      	subs	r1, r5, r1
 8000dec:	6099      	str	r1, [r3, #8]
 8000dee:	b144      	cbz	r4, 8000e02 <rt_timer_insert+0x2a>
 8000df0:	6020      	str	r0, [r4, #0]
 8000df2:	bd30      	pop	{r4, r5, pc}
 8000df4:	689d      	ldr	r5, [r3, #8]
 8000df6:	42a9      	cmp	r1, r5
 8000df8:	d3f3      	bcc.n	8000de2 <rt_timer_insert+0xa>
 8000dfa:	461c      	mov	r4, r3
 8000dfc:	1b49      	subs	r1, r1, r5
 8000dfe:	681b      	ldr	r3, [r3, #0]
 8000e00:	e7ee      	b.n	8000de0 <rt_timer_insert+0x8>
 8000e02:	6010      	str	r0, [r2, #0]
 8000e04:	bd30      	pop	{r4, r5, pc}
 8000e06:	bf00      	nop
 8000e08:	200019d0 	.word	0x200019d0

08000e0c <rt_ms2tick>:
 8000e0c:	b1c0      	cbz	r0, 8000e40 <rt_ms2tick+0x34>
 8000e0e:	1c43      	adds	r3, r0, #1
 8000e10:	d011      	beq.n	8000e36 <rt_ms2tick+0x2a>
 8000e12:	4b0c      	ldr	r3, [pc, #48]	; (8000e44 <rt_ms2tick+0x38>)
 8000e14:	4298      	cmp	r0, r3
 8000e16:	d811      	bhi.n	8000e3c <rt_ms2tick+0x30>
 8000e18:	4b0b      	ldr	r3, [pc, #44]	; (8000e48 <rt_ms2tick+0x3c>)
 8000e1a:	681b      	ldr	r3, [r3, #0]
 8000e1c:	f44f 717a 	mov.w	r1, #1000	; 0x3e8
 8000e20:	1e5a      	subs	r2, r3, #1
 8000e22:	fb01 2000 	mla	r0, r1, r0, r2
 8000e26:	fbb0 f3f3 	udiv	r3, r0, r3
 8000e2a:	f64f 70fe 	movw	r0, #65534	; 0xfffe
 8000e2e:	4283      	cmp	r3, r0
 8000e30:	d806      	bhi.n	8000e40 <rt_ms2tick+0x34>
 8000e32:	b298      	uxth	r0, r3
 8000e34:	4770      	bx	lr
 8000e36:	f64f 70ff 	movw	r0, #65535	; 0xffff
 8000e3a:	4770      	bx	lr
 8000e3c:	f64f 70fe 	movw	r0, #65534	; 0xfffe
 8000e40:	4770      	bx	lr
 8000e42:	bf00      	nop
 8000e44:	003d0900 	.word	0x003d0900
 8000e48:	080063b0 	.word	0x080063b0

08000e4c <rt_tid2ptcb>:
 8000e4c:	b138      	cbz	r0, 8000e5e <rt_tid2ptcb+0x12>
 8000e4e:	0783      	lsls	r3, r0, #30
 8000e50:	d104      	bne.n	8000e5c <rt_tid2ptcb+0x10>
 8000e52:	7803      	ldrb	r3, [r0, #0]
 8000e54:	2b00      	cmp	r3, #0
 8000e56:	bf18      	it	ne
 8000e58:	2000      	movne	r0, #0
 8000e5a:	4770      	bx	lr
 8000e5c:	2000      	movs	r0, #0
 8000e5e:	4770      	bx	lr

08000e60 <svcKernelStart>:
 8000e60:	b5b0      	push	{r4, r5, r7, lr}
 8000e62:	4d0e      	ldr	r5, [pc, #56]	; (8000e9c <svcKernelStart+0x3c>)
 8000e64:	7828      	ldrb	r0, [r5, #0]
 8000e66:	af00      	add	r7, sp, #0
 8000e68:	b9a8      	cbnz	r0, 8000e96 <svcKernelStart+0x36>
 8000e6a:	4c0d      	ldr	r4, [pc, #52]	; (8000ea0 <svcKernelStart+0x40>)
 8000e6c:	6823      	ldr	r3, [r4, #0]
 8000e6e:	f893 1024 	ldrb.w	r1, [r3, #36]	; 0x24
 8000e72:	f000 fb6f 	bl	8001554 <rt_tsk_prio>
 8000e76:	6823      	ldr	r3, [r4, #0]
 8000e78:	78da      	ldrb	r2, [r3, #3]
 8000e7a:	2aff      	cmp	r2, #255	; 0xff
 8000e7c:	d103      	bne.n	8000e86 <svcKernelStart+0x26>
 8000e7e:	6ada      	ldr	r2, [r3, #44]	; 0x2c
 8000e80:	3220      	adds	r2, #32
 8000e82:	f382 8809 	msr	PSP, r2
 8000e86:	6862      	ldr	r2, [r4, #4]
 8000e88:	b90a      	cbnz	r2, 8000e8e <svcKernelStart+0x2e>
 8000e8a:	e884 000c 	stmia.w	r4, {r2, r3}
 8000e8e:	f000 fd19 	bl	80018c4 <rt_sys_start>
 8000e92:	2301      	movs	r3, #1
 8000e94:	702b      	strb	r3, [r5, #0]
 8000e96:	2000      	movs	r0, #0
 8000e98:	bdb0      	pop	{r4, r5, r7, pc}
 8000e9a:	bf00      	nop
 8000e9c:	200019cd 	.word	0x200019cd
 8000ea0:	200019d4 	.word	0x200019d4

08000ea4 <svcKernelRunning>:
 8000ea4:	4b01      	ldr	r3, [pc, #4]	; (8000eac <svcKernelRunning+0x8>)
 8000ea6:	7818      	ldrb	r0, [r3, #0]
 8000ea8:	4770      	bx	lr
 8000eaa:	bf00      	nop
 8000eac:	200019cd 	.word	0x200019cd

08000eb0 <osKernelRunning>:
 8000eb0:	b510      	push	{r4, lr}
 8000eb2:	f3ef 8410 	mrs	r4, PRIMASK
 8000eb6:	b934      	cbnz	r4, 8000ec6 <osKernelRunning+0x16>
 8000eb8:	f3ef 8405 	mrs	r4, IPSR
 8000ebc:	b91c      	cbnz	r4, 8000ec6 <osKernelRunning+0x16>
 8000ebe:	f3ef 8414 	mrs	r4, CONTROL
 8000ec2:	07e4      	lsls	r4, r4, #31
 8000ec4:	d402      	bmi.n	8000ecc <osKernelRunning+0x1c>
 8000ec6:	4b03      	ldr	r3, [pc, #12]	; (8000ed4 <osKernelRunning+0x24>)
 8000ec8:	7818      	ldrb	r0, [r3, #0]
 8000eca:	bd10      	pop	{r4, pc}
 8000ecc:	f8df c008 	ldr.w	r12, [pc, #8]	; 8000ed8 <osKernelRunning+0x28>
 8000ed0:	df00      	svc	0
 8000ed2:	bd10      	pop	{r4, pc}
 8000ed4:	200019cd 	.word	0x200019cd
 8000ed8:	08000ea5 	.word	0x08000ea5

08000edc <osKernelStart>:
 8000edc:	b590      	push	{r4, r7, lr}
 8000ede:	b089      	sub	sp, #36	; 0x24
 8000ee0:	af00      	add	r7, sp, #0
 8000ee2:	f3ef 8310 	mrs	r3, PRIMASK
 8000ee6:	2b00      	cmp	r3, #0
 8000ee8:	d137      	bne.n	8000f5a <osKernelStart+0x7e>
 8000eea:	f3ef 8305 	mrs	r3, IPSR
 8000eee:	2b00      	cmp	r3, #0
 8000ef0:	d133      	bne.n	8000f5a <osKernelStart+0x7e>
 8000ef2:	f7ff ffdd 	bl	8000eb0 <osKernelRunning>
 8000ef6:	b928      	cbnz	r0, 8000f04 <osKernelStart+0x28>
 8000ef8:	4c19      	ldr	r4, [pc, #100]	; (8000f60 <osKernelStart+0x84>)
 8000efa:	6824      	ldr	r4, [r4, #0]
 8000efc:	b114      	cbz	r4, 8000f04 <osKernelStart+0x28>
 8000efe:	6864      	ldr	r4, [r4, #4]
 8000f00:	b104      	cbz	r4, 8000f04 <osKernelStart+0x28>
 8000f02:	47a0      	blx	r4
 8000f04:	f3ef 8414 	mrs	r4, CONTROL
 8000f08:	f004 0403 	and.w	r4, r4, #3
 8000f0c:	2c02      	cmp	r4, #2
 8000f0e:	d018      	beq.n	8000f42 <osKernelStart+0x66>
 8000f10:	2c03      	cmp	r4, #3
 8000f12:	d01c      	beq.n	8000f4e <osKernelStart+0x72>
 8000f14:	2c01      	cmp	r4, #1
 8000f16:	d01e      	beq.n	8000f56 <osKernelStart+0x7a>
 8000f18:	f107 0420 	add.w	r4, r7, #32
 8000f1c:	f384 8809 	msr	PSP, r4
 8000f20:	4c10      	ldr	r4, [pc, #64]	; (8000f64 <osKernelStart+0x88>)
 8000f22:	7824      	ldrb	r4, [r4, #0]
 8000f24:	07e4      	lsls	r4, r4, #31
 8000f26:	d510      	bpl.n	8000f4a <osKernelStart+0x6e>
 8000f28:	2402      	movs	r4, #2
 8000f2a:	f384 8814 	msr	CONTROL, r4
 8000f2e:	f3bf 8f4f 	dsb	sy
 8000f32:	f3bf 8f6f 	isb	sy
 8000f36:	f8df c030 	ldr.w	r12, [pc, #48]	; 8000f68 <osKernelStart+0x8c>
 8000f3a:	df00      	svc	0
 8000f3c:	3724      	adds	r7, #36	; 0x24
 8000f3e:	46bd      	mov	sp, r7
 8000f40:	bd90      	pop	{r4, r7, pc}
 8000f42:	4c08      	ldr	r4, [pc, #32]	; (8000f64 <osKernelStart+0x88>)
 8000f44:	7824      	ldrb	r4, [r4, #0]
 8000f46:	07e4      	lsls	r4, r4, #31
 8000f48:	d4f5      	bmi.n	8000f36 <osKernelStart+0x5a>
 8000f4a:	2403      	movs	r4, #3
 8000f4c:	e7ed      	b.n	8000f2a <osKernelStart+0x4e>
 8000f4e:	4c05      	ldr	r4, [pc, #20]	; (8000f64 <osKernelStart+0x88>)
 8000f50:	7824      	ldrb	r4, [r4, #0]
 8000f52:	07e4      	lsls	r4, r4, #31
 8000f54:	d5ef      	bpl.n	8000f36 <osKernelStart+0x5a>
 8000f56:	20ff      	movs	r0, #255	; 0xff
 8000f58:	e7f0      	b.n	8000f3c <osKernelStart+0x60>
 8000f5a:	2082      	movs	r0, #130	; 0x82
 8000f5c:	e7ee      	b.n	8000f3c <osKernelStart+0x60>
 8000f5e:	bf00      	nop
 8000f60:	200019bc 	.word	0x200019bc
 8000f64:	080063de 	.word	0x080063de
 8000f68:	08000e61 	.word	0x08000e61

08000f6c <svcThreadCreate>:
 8000f6c:	b570      	push	{r4, r5, r6, lr}
 8000f6e:	460b      	mov	r3, r1
 8000f70:	4616      	mov	r6, r2
 8000f72:	4602      	mov	r2, r0
 8000f74:	b910      	cbnz	r0, 8000f7c <svcThreadCreate+0x10>
 8000f76:	2400      	movs	r4, #0
 8000f78:	4620      	mov	r0, r4
 8000f7a:	bd70      	pop	{r4, r5, r6, pc}
 8000f7c:	6800      	ldr	r0, [r0, #0]
 8000f7e:	2800      	cmp	r0, #0
 8000f80:	d0f9      	beq.n	8000f76 <svcThreadCreate+0xa>
 8000f82:	f9b2 4004 	ldrsh.w	r4, [r2, #4]
 8000f86:	1ce5      	adds	r5, r4, #3
 8000f88:	b2ad      	uxth	r5, r5
 8000f8a:	2d06      	cmp	r5, #6
 8000f8c:	d8f3      	bhi.n	8000f76 <svcThreadCreate+0xa>
 8000f8e:	68d1      	ldr	r1, [r2, #12]
 8000f90:	b1c1      	cbz	r1, 8000fc4 <svcThreadCreate+0x58>
 8000f92:	6912      	ldr	r2, [r2, #16]
 8000f94:	3404      	adds	r4, #4
 8000f96:	ea44 2101 	orr.w	r1, r4, r1, lsl #8
 8000f9a:	f000 fb19 	bl	80015d0 <rt_tsk_create>
 8000f9e:	2800      	cmp	r0, #0
 8000fa0:	d0e9      	beq.n	8000f76 <svcThreadCreate+0xa>
 8000fa2:	4b0a      	ldr	r3, [pc, #40]	; (8000fcc <svcThreadCreate+0x60>)
 8000fa4:	4a0a      	ldr	r2, [pc, #40]	; (8000fd0 <svcThreadCreate+0x64>)
 8000fa6:	3801      	subs	r0, #1
 8000fa8:	f853 4020 	ldr.w	r4, [r3, r0, lsl #2]
 8000fac:	6ae3      	ldr	r3, [r4, #44]	; 0x2c
 8000fae:	635a      	str	r2, [r3, #52]	; 0x34
 8000fb0:	4b08      	ldr	r3, [pc, #32]	; (8000fd4 <svcThreadCreate+0x68>)
 8000fb2:	681b      	ldr	r3, [r3, #0]
 8000fb4:	b143      	cbz	r3, 8000fc8 <svcThreadCreate+0x5c>
 8000fb6:	689b      	ldr	r3, [r3, #8]
 8000fb8:	b133      	cbz	r3, 8000fc8 <svcThreadCreate+0x5c>
 8000fba:	4631      	mov	r1, r6
 8000fbc:	78e0      	ldrb	r0, [r4, #3]
 8000fbe:	4798      	blx	r3
 8000fc0:	63e0      	str	r0, [r4, #60]	; 0x3c
 8000fc2:	e7d9      	b.n	8000f78 <svcThreadCreate+0xc>
 8000fc4:	460a      	mov	r2, r1
 8000fc6:	e7e5      	b.n	8000f94 <svcThreadCreate+0x28>
 8000fc8:	63e6      	str	r6, [r4, #60]	; 0x3c
 8000fca:	e7d5      	b.n	8000f78 <svcThreadCreate+0xc>
 8000fcc:	200013f0 	.word	0x200013f0
 8000fd0:	08001175 	.word	0x08001175
 8000fd4:	200019bc 	.word	0x200019bc

08000fd8 <svcThreadGetId>:
 8000fd8:	b508      	push	{r3, lr}
 8000fda:	f000 fab3 	bl	8001544 <rt_tsk_self>
 8000fde:	b118      	cbz	r0, 8000fe8 <svcThreadGetId+0x10>
 8000fe0:	3801      	subs	r0, #1
 8000fe2:	4b02      	ldr	r3, [pc, #8]	; (8000fec <svcThreadGetId+0x14>)
 8000fe4:	f853 0020 	ldr.w	r0, [r3, r0, lsl #2]
 8000fe8:	bd08      	pop	{r3, pc}
 8000fea:	bf00      	nop
 8000fec:	200013f0 	.word	0x200013f0

08000ff0 <svcThreadTerminate>:
 8000ff0:	b510      	push	{r4, lr}
 8000ff2:	f7ff ff2b 	bl	8000e4c <rt_tid2ptcb>
 8000ff6:	4604      	mov	r4, r0
 8000ff8:	b170      	cbz	r0, 8001018 <svcThreadTerminate+0x28>
 8000ffa:	4b08      	ldr	r3, [pc, #32]	; (800101c <svcThreadTerminate+0x2c>)
 8000ffc:	681b      	ldr	r3, [r3, #0]
 8000ffe:	b11b      	cbz	r3, 8001008 <svcThreadTerminate+0x18>
 8001000:	68db      	ldr	r3, [r3, #12]
 8001002:	b10b      	cbz	r3, 8001008 <svcThreadTerminate+0x18>
 8001004:	6bc0      	ldr	r0, [r0, #60]	; 0x3c
 8001006:	4798      	blx	r3
 8001008:	78e0      	ldrb	r0, [r4, #3]
 800100a:	f000 fb37 	bl	800167c <rt_tsk_delete>
 800100e:	28ff      	cmp	r0, #255	; 0xff
 8001010:	bf0c      	ite	eq
 8001012:	2081      	moveq	r0, #129	; 0x81
 8001014:	2000      	movne	r0, #0
 8001016:	bd10      	pop	{r4, pc}
 8001018:	2080      	movs	r0, #128	; 0x80
 800101a:	bd10      	pop	{r4, pc}
 800101c:	200019bc 	.word	0x200019bc

08001020 <svcDelay>:
 8001020:	b508      	push	{r3, lr}
 8001022:	b128      	cbz	r0, 8001030 <svcDelay+0x10>
 8001024:	f7ff fef2 	bl	8000e0c <rt_ms2tick>
 8001028:	f000 fd8e 	bl	8001b48 <rt_dly_wait>
 800102c:	2040      	movs	r0, #64	; 0x40
 800102e:	bd08      	pop	{r3, pc}
 8001030:	bd08      	pop	{r3, pc}
	...

08001034 <osDelay>:
 8001034:	b510      	push	{r4, lr}
 8001036:	f3ef 8410 	mrs	r4, PRIMASK
 800103a:	b934      	cbnz	r4, 800104a <osDelay+0x16>
 800103c:	f3ef 8405 	mrs	r4, IPSR
 8001040:	b91c      	cbnz	r4, 800104a <osDelay+0x16>
 8001042:	f8df c00c 	ldr.w	r12, [pc, #12]	; 8001050 <osDelay+0x1c>
 8001046:	df00      	svc	0
 8001048:	bd10      	pop	{r4, pc}
 800104a:	2082      	movs	r0, #130	; 0x82
 800104c:	bd10      	pop	{r4, pc}
 800104e:	0000      	.short	0x0000
 8001050:	08001021 	.word	0x08001021

08001054 <svcTimerCall>:
 8001054:	0783      	lsls	r3, r0, #30
 8001056:	d105      	bne.n	8001064 <svcTimerCall+0x10>
 8001058:	b138      	cbz	r0, 800106a <svcTimerCall+0x16>
 800105a:	6943      	ldr	r3, [r0, #20]
 800105c:	6901      	ldr	r1, [r0, #16]
 800105e:	681b      	ldr	r3, [r3, #0]
 8001060:	4618      	mov	r0, r3
 8001062:	4770      	bx	lr
 8001064:	2300      	movs	r3, #0
 8001066:	4619      	mov	r1, r3
 8001068:	e7fa      	b.n	8001060 <svcTimerCall+0xc>
 800106a:	4603      	mov	r3, r0
 800106c:	e7fb      	b.n	8001066 <svcTimerCall+0x12>
	...

08001070 <osTimerCall>:
 8001070:	b510      	push	{r4, lr}
 8001072:	4604      	mov	r4, r0
 8001074:	4608      	mov	r0, r1
 8001076:	f8df c00c 	ldr.w	r12, [pc, #12]	; 8001084 <osTimerCall+0x14>
 800107a:	df00      	svc	0
 800107c:	e884 0003 	stmia.w	r4, {r0, r1}
 8001080:	4620      	mov	r0, r4
 8001082:	bd10      	pop	{r4, pc}
 8001084:	08001055 	.word	0x08001055

08001088 <svcMutexCreate>:
 8001088:	b510      	push	{r4, lr}
 800108a:	b148      	cbz	r0, 80010a0 <svcMutexCreate+0x18>
 800108c:	6804      	ldr	r4, [r0, #0]
 800108e:	b124      	cbz	r4, 800109a <svcMutexCreate+0x12>
 8001090:	7823      	ldrb	r3, [r4, #0]
 8001092:	b923      	cbnz	r3, 800109e <svcMutexCreate+0x16>
 8001094:	4620      	mov	r0, r4
 8001096:	f000 fc5b 	bl	8001950 <rt_mut_init>
 800109a:	4620      	mov	r0, r4
 800109c:	bd10      	pop	{r4, pc}
 800109e:	2000      	movs	r0, #0
 80010a0:	bd10      	pop	{r4, pc}

080010a2 <svcMutexWait>:
 80010a2:	b570      	push	{r4, r5, r6, lr}
 80010a4:	f010 0403 	ands.w	r4, r0, #3
 80010a8:	4605      	mov	r5, r0
 80010aa:	460e      	mov	r6, r1
 80010ac:	d111      	bne.n	80010d2 <svcMutexWait+0x30>
 80010ae:	b180      	cbz	r0, 80010d2 <svcMutexWait+0x30>
 80010b0:	7803      	ldrb	r3, [r0, #0]
 80010b2:	2b03      	cmp	r3, #3
 80010b4:	d10d      	bne.n	80010d2 <svcMutexWait+0x30>
 80010b6:	4608      	mov	r0, r1
 80010b8:	f7ff fea8 	bl	8000e0c <rt_ms2tick>
 80010bc:	4601      	mov	r1, r0
 80010be:	4628      	mov	r0, r5
 80010c0:	f000 fd14 	bl	8001aec <rt_mut_wait>
 80010c4:	2801      	cmp	r0, #1
 80010c6:	d106      	bne.n	80010d6 <svcMutexWait+0x34>
 80010c8:	2e00      	cmp	r6, #0
 80010ca:	bf14      	ite	ne
 80010cc:	20c1      	movne	r0, #193	; 0xc1
 80010ce:	2081      	moveq	r0, #129	; 0x81
 80010d0:	bd70      	pop	{r4, r5, r6, pc}
 80010d2:	2080      	movs	r0, #128	; 0x80
 80010d4:	bd70      	pop	{r4, r5, r6, pc}
 80010d6:	4620      	mov	r0, r4
 80010d8:	bd70      	pop	{r4, r5, r6, pc}

080010da <svcMutexRelease>:
 80010da:	0782      	lsls	r2, r0, #30
 80010dc:	b508      	push	{r3, lr}
 80010de:	d10a      	bne.n	80010f6 <svcMutexRelease+0x1c>
 80010e0:	b148      	cbz	r0, 80010f6 <svcMutexRelease+0x1c>
 80010e2:	7803      	ldrb	r3, [r0, #0]
 80010e4:	2b03      	cmp	r3, #3
 80010e6:	d106      	bne.n	80010f6 <svcMutexRelease+0x1c>
 80010e8:	f000 fc90 	bl	8001a0c <rt_mut_release>
 80010ec:	28ff      	cmp	r0, #255	; 0xff
 80010ee:	bf0c      	ite	eq
 80010f0:	2081      	moveq	r0, #129	; 0x81
 80010f2:	2000      	movne	r0, #0
 80010f4:	bd08      	pop	{r3, pc}
 80010f6:	2080      	movs	r0, #128	; 0x80
 80010f8:	bd08      	pop	{r3, pc}

080010fa <svcMutexDelete>:
 80010fa:	b510      	push	{r4, lr}
 80010fc:	f010 0403 	ands.w	r4, r0, #3
 8001100:	d107      	bne.n	8001112 <svcMutexDelete+0x18>
 8001102:	b130      	cbz	r0, 8001112 <svcMutexDelete+0x18>
 8001104:	7803      	ldrb	r3, [r0, #0]
 8001106:	2b03      	cmp	r3, #3
 8001108:	d103      	bne.n	8001112 <svcMutexDelete+0x18>
 800110a:	f000 fc29 	bl	8001960 <rt_mut_delete>
 800110e:	4620      	mov	r0, r4
 8001110:	bd10      	pop	{r4, pc}
 8001112:	2080      	movs	r0, #128	; 0x80
 8001114:	bd10      	pop	{r4, pc}
	...

08001118 <osMutexCreate>:
 8001118:	b570      	push	{r4, r5, r6, lr}
 800111a:	4605      	mov	r5, r0
 800111c:	f3ef 8410 	mrs	r4, PRIMASK
 8001120:	b994      	cbnz	r4, 8001148 <osMutexCreate+0x30>
 8001122:	f3ef 8605 	mrs	r6, IPSR
 8001126:	b97e      	cbnz	r6, 8001148 <osMutexCreate+0x30>
 8001128:	f3ef 8414 	mrs	r4, CONTROL
 800112c:	07e4      	lsls	r4, r4, #31
 800112e:	d406      	bmi.n	800113e <osMutexCreate+0x26>
 8001130:	4c06      	ldr	r4, [pc, #24]	; (800114c <osMutexCreate+0x34>)
 8001132:	7824      	ldrb	r4, [r4, #0]
 8001134:	b91c      	cbnz	r4, 800113e <osMutexCreate+0x26>
 8001136:	e8bd 4070 	ldmia.w	sp!, {r4, r5, r6, lr}
 800113a:	f7ff bfa5 	b.w	8001088 <svcMutexCreate>
 800113e:	4628      	mov	r0, r5
 8001140:	f8df c00c 	ldr.w	r12, [pc, #12]	; 8001150 <osMutexCreate+0x38>
 8001144:	df00      	svc	0
 8001146:	bd70      	pop	{r4, r5, r6, pc}
 8001148:	2000      	movs	r0, #0
 800114a:	bd70      	pop	{r4, r5, r6, pc}
 800114c:	200019cd 	.word	0x200019cd
 8001150:	08001089 	.word	0x08001089

08001154 <osMutexWait>:
 8001154:	b510      	push	{r4, lr}
 8001156:	f3ef 8410 	mrs	r4, PRIMASK
 800115a:	b934      	cbnz	r4, 800116a <osMutexWait+0x16>
 800115c:	f3ef 8405 	mrs	r4, IPSR
 8001160:	b91c      	cbnz	r4, 800116a <osMutexWait+0x16>
 8001162:	f8df c00c 	ldr.w	r12, [pc, #12]	; 8001170 <osMutexWait+0x1c>
 8001166:	df00      	svc	0
 8001168:	bd10      	pop	{r4, pc}
 800116a:	2082      	movs	r0, #130	; 0x82
 800116c:	bd10      	pop	{r4, pc}
 800116e:	0000      	.short	0x0000
 8001170:	080010a3 	.word	0x080010a3

08001174 <osThreadExit>:
 8001174:	4808      	ldr	r0, [pc, #32]	; (8001198 <osThreadExit+0x24>)
 8001176:	b508      	push	{r3, lr}
 8001178:	f04f 31ff 	mov.w	r1, #4294967295	; 0xffffffff
 800117c:	6800      	ldr	r0, [r0, #0]
 800117e:	f7ff ffe9 	bl	8001154 <osMutexWait>
 8001182:	f8df c018 	ldr.w	r12, [pc, #24]	; 800119c <osThreadExit+0x28>
 8001186:	df00      	svc	0
 8001188:	4604      	mov	r4, r0
 800118a:	f7ff fa4b 	bl	8000624 <sysThreadTerminate>
 800118e:	4620      	mov	r0, r4
 8001190:	f8df c00c 	ldr.w	r12, [pc, #12]	; 80011a0 <osThreadExit+0x2c>
 8001194:	df00      	svc	0
 8001196:	e7fe      	b.n	8001196 <osThreadExit+0x22>
 8001198:	200019c8 	.word	0x200019c8
 800119c:	08000fd9 	.word	0x08000fd9
 80011a0:	08000ff1 	.word	0x08000ff1

080011a4 <osMutexRelease>:
 80011a4:	b510      	push	{r4, lr}
 80011a6:	f3ef 8410 	mrs	r4, PRIMASK
 80011aa:	b934      	cbnz	r4, 80011ba <osMutexRelease+0x16>
 80011ac:	f3ef 8405 	mrs	r4, IPSR
 80011b0:	b91c      	cbnz	r4, 80011ba <osMutexRelease+0x16>
 80011b2:	f8df c00c 	ldr.w	r12, [pc, #12]	; 80011c0 <osMutexRelease+0x1c>
 80011b6:	df00      	svc	0
 80011b8:	bd10      	pop	{r4, pc}
 80011ba:	2082      	movs	r0, #130	; 0x82
 80011bc:	bd10      	pop	{r4, pc}
 80011be:	0000      	.short	0x0000
 80011c0:	080010db 	.word	0x080010db

080011c4 <osThreadContextCreate>:
 80011c4:	e92d 41f0 	stmdb	sp!, {r4, r5, r6, r7, r8, lr}
 80011c8:	4680      	mov	r8, r0
 80011ca:	460f      	mov	r7, r1
 80011cc:	4616      	mov	r6, r2
 80011ce:	f3ef 8410 	mrs	r4, PRIMASK
 80011d2:	bb04      	cbnz	r4, 8001216 <osThreadContextCreate+0x52>
 80011d4:	f3ef 8305 	mrs	r3, IPSR
 80011d8:	b9d3      	cbnz	r3, 8001210 <osThreadContextCreate+0x4c>
 80011da:	f3ef 8314 	mrs	r3, CONTROL
 80011de:	07db      	lsls	r3, r3, #31
 80011e0:	d406      	bmi.n	80011f0 <osThreadContextCreate+0x2c>
 80011e2:	4b0e      	ldr	r3, [pc, #56]	; (800121c <osThreadContextCreate+0x58>)
 80011e4:	781b      	ldrb	r3, [r3, #0]
 80011e6:	b91b      	cbnz	r3, 80011f0 <osThreadContextCreate+0x2c>
 80011e8:	e8bd 41f0 	ldmia.w	sp!, {r4, r5, r6, r7, r8, lr}
 80011ec:	f7ff bebe 	b.w	8000f6c <svcThreadCreate>
 80011f0:	4d0b      	ldr	r5, [pc, #44]	; (8001220 <osThreadContextCreate+0x5c>)
 80011f2:	f04f 31ff 	mov.w	r1, #4294967295	; 0xffffffff
 80011f6:	6828      	ldr	r0, [r5, #0]
 80011f8:	f7ff ffac 	bl	8001154 <osMutexWait>
 80011fc:	4640      	mov	r0, r8
 80011fe:	4639      	mov	r1, r7
 8001200:	4632      	mov	r2, r6
 8001202:	f8df c020 	ldr.w	r12, [pc, #32]	; 8001224 <osThreadContextCreate+0x60>
 8001206:	df00      	svc	0
 8001208:	4604      	mov	r4, r0
 800120a:	6828      	ldr	r0, [r5, #0]
 800120c:	f7ff ffca 	bl	80011a4 <osMutexRelease>
 8001210:	4620      	mov	r0, r4
 8001212:	e8bd 81f0 	ldmia.w	sp!, {r4, r5, r6, r7, r8, pc}
 8001216:	2400      	movs	r4, #0
 8001218:	e7fa      	b.n	8001210 <osThreadContextCreate+0x4c>
 800121a:	bf00      	nop
 800121c:	200019cd 	.word	0x200019cd
 8001220:	200019c8 	.word	0x200019c8
 8001224:	08000f6d 	.word	0x08000f6d

08001228 <osThreadCreate>:
 8001228:	2200      	movs	r2, #0
 800122a:	f7ff bfcb 	b.w	80011c4 <osThreadContextCreate>
	...

08001230 <osMutexDelete>:
 8001230:	b510      	push	{r4, lr}
 8001232:	f3ef 8410 	mrs	r4, PRIMASK
 8001236:	b934      	cbnz	r4, 8001246 <osMutexDelete+0x16>
 8001238:	f3ef 8405 	mrs	r4, IPSR
 800123c:	b91c      	cbnz	r4, 8001246 <osMutexDelete+0x16>
 800123e:	f8df c00c 	ldr.w	r12, [pc, #12]	; 800124c <osMutexDelete+0x1c>
 8001242:	df00      	svc	0
 8001244:	bd10      	pop	{r4, pc}
 8001246:	2082      	movs	r0, #130	; 0x82
 8001248:	bd10      	pop	{r4, pc}
 800124a:	0000      	.short	0x0000
 800124c:	080010fb 	.word	0x080010fb

08001250 <svcMessageCreate>:
 8001250:	b510      	push	{r4, lr}
 8001252:	4604      	mov	r4, r0
 8001254:	b160      	cbz	r0, 8001270 <svcMessageCreate+0x20>
 8001256:	6801      	ldr	r1, [r0, #0]
 8001258:	b151      	cbz	r1, 8001270 <svcMessageCreate+0x20>
 800125a:	6840      	ldr	r0, [r0, #4]
 800125c:	b148      	cbz	r0, 8001272 <svcMessageCreate+0x22>
 800125e:	7803      	ldrb	r3, [r0, #0]
 8001260:	b933      	cbnz	r3, 8001270 <svcMessageCreate+0x20>
 8001262:	3104      	adds	r1, #4
 8001264:	0089      	lsls	r1, r1, #2
 8001266:	b289      	uxth	r1, r1
 8001268:	f7ff fc52 	bl	8000b10 <rt_mbx_init>
 800126c:	6860      	ldr	r0, [r4, #4]
 800126e:	bd10      	pop	{r4, pc}
 8001270:	2000      	movs	r0, #0
 8001272:	bd10      	pop	{r4, pc}

08001274 <svcKernelInitialize>:
 8001274:	b538      	push	{r3, r4, r5, lr}
 8001276:	4c11      	ldr	r4, [pc, #68]	; (80012bc <svcKernelInitialize+0x48>)
 8001278:	7823      	ldrb	r3, [r4, #0]
 800127a:	b90b      	cbnz	r3, 8001280 <svcKernelInitialize+0xc>
 800127c:	f000 faa8 	bl	80017d0 <rt_sys_init>
 8001280:	4b0f      	ldr	r3, [pc, #60]	; (80012c0 <svcKernelInitialize+0x4c>)
 8001282:	7825      	ldrb	r5, [r4, #0]
 8001284:	681b      	ldr	r3, [r3, #0]
 8001286:	22ff      	movs	r2, #255	; 0xff
 8001288:	709a      	strb	r2, [r3, #2]
 800128a:	b98d      	cbnz	r5, 80012b0 <svcKernelInitialize+0x3c>
 800128c:	4629      	mov	r1, r5
 800128e:	480d      	ldr	r0, [pc, #52]	; (80012c4 <svcKernelInitialize+0x50>)
 8001290:	f7ff ffde 	bl	8001250 <svcMessageCreate>
 8001294:	4b0c      	ldr	r3, [pc, #48]	; (80012c8 <svcKernelInitialize+0x54>)
 8001296:	462a      	mov	r2, r5
 8001298:	6018      	str	r0, [r3, #0]
 800129a:	4629      	mov	r1, r5
 800129c:	480b      	ldr	r0, [pc, #44]	; (80012cc <svcKernelInitialize+0x58>)
 800129e:	f7ff fe65 	bl	8000f6c <svcThreadCreate>
 80012a2:	4b0b      	ldr	r3, [pc, #44]	; (80012d0 <svcKernelInitialize+0x5c>)
 80012a4:	6018      	str	r0, [r3, #0]
 80012a6:	480b      	ldr	r0, [pc, #44]	; (80012d4 <svcKernelInitialize+0x60>)
 80012a8:	f7ff ff36 	bl	8001118 <osMutexCreate>
 80012ac:	4b0a      	ldr	r3, [pc, #40]	; (80012d8 <svcKernelInitialize+0x64>)
 80012ae:	6018      	str	r0, [r3, #0]
 80012b0:	2301      	movs	r3, #1
 80012b2:	7023      	strb	r3, [r4, #0]
 80012b4:	4b09      	ldr	r3, [pc, #36]	; (80012dc <svcKernelInitialize+0x68>)
 80012b6:	2000      	movs	r0, #0
 80012b8:	7018      	strb	r0, [r3, #0]
 80012ba:	bd38      	pop	{r3, r4, r5, pc}
 80012bc:	200019cc 	.word	0x200019cc
 80012c0:	200019d4 	.word	0x200019d4
 80012c4:	080063e4 	.word	0x080063e4
 80012c8:	20001490 	.word	0x20001490
 80012cc:	08006400 	.word	0x08006400
 80012d0:	20001984 	.word	0x20001984
 80012d4:	08006418 	.word	0x08006418
 80012d8:	200019c8 	.word	0x200019c8
 80012dc:	200019cd 	.word	0x200019cd

080012e0 <osKernelInitialize>:
 80012e0:	b510      	push	{r4, lr}
 80012e2:	f3ef 8410 	mrs	r4, PRIMASK
 80012e6:	b974      	cbnz	r4, 8001306 <osKernelInitialize+0x26>
 80012e8:	f3ef 8405 	mrs	r4, IPSR
 80012ec:	b95c      	cbnz	r4, 8001306 <osKernelInitialize+0x26>
 80012ee:	f3ef 8414 	mrs	r4, CONTROL
 80012f2:	07e4      	lsls	r4, r4, #31
 80012f4:	d403      	bmi.n	80012fe <osKernelInitialize+0x1e>
 80012f6:	e8bd 4010 	ldmia.w	sp!, {r4, lr}
 80012fa:	f7ff bfbb 	b.w	8001274 <svcKernelInitialize>
 80012fe:	f8df c00c 	ldr.w	r12, [pc, #12]	; 800130c <osKernelInitialize+0x2c>
 8001302:	df00      	svc	0
 8001304:	bd10      	pop	{r4, pc}
 8001306:	2082      	movs	r0, #130	; 0x82
 8001308:	bd10      	pop	{r4, pc}
 800130a:	0000      	.short	0x0000
 800130c:	08001275 	.word	0x08001275

08001310 <svcMessageGet>:
 8001310:	e92d 41ff 	stmdb	sp!, {r0, r1, r2, r3, r4, r5, r6, r7, r8, lr}
 8001314:	460c      	mov	r4, r1
 8001316:	4680      	mov	r8, r0
 8001318:	b318      	cbz	r0, 8001362 <svcMessageGet+0x52>
 800131a:	7803      	ldrb	r3, [r0, #0]
 800131c:	2b01      	cmp	r3, #1
 800131e:	d125      	bne.n	800136c <svcMessageGet+0x5c>
 8001320:	4608      	mov	r0, r1
 8001322:	f7ff fd73 	bl	8000e0c <rt_ms2tick>
 8001326:	a902      	add	r1, sp, #8
 8001328:	4602      	mov	r2, r0
 800132a:	4640      	mov	r0, r8
 800132c:	f7ff fbfe 	bl	8000b2c <rt_mbx_wait>
 8001330:	2801      	cmp	r0, #1
 8001332:	d111      	bne.n	8001358 <svcMessageGet+0x48>
 8001334:	2000      	movs	r0, #0
 8001336:	2c00      	cmp	r4, #0
 8001338:	4602      	mov	r2, r0
 800133a:	4603      	mov	r3, r0
 800133c:	bf18      	it	ne
 800133e:	2040      	movne	r0, #64	; 0x40
 8001340:	9902      	ldr	r1, [sp, #8]
 8001342:	4604      	mov	r4, r0
 8001344:	460d      	mov	r5, r1
 8001346:	4616      	mov	r6, r2
 8001348:	461f      	mov	r7, r3
 800134a:	4620      	mov	r0, r4
 800134c:	4629      	mov	r1, r5
 800134e:	4632      	mov	r2, r6
 8001350:	463b      	mov	r3, r7
 8001352:	b004      	add	sp, #16
 8001354:	e8bd 81f0 	ldmia.w	sp!, {r4, r5, r6, r7, r8, pc}
 8001358:	2000      	movs	r0, #0
 800135a:	4602      	mov	r2, r0
 800135c:	4603      	mov	r3, r0
 800135e:	2010      	movs	r0, #16
 8001360:	e7ee      	b.n	8001340 <svcMessageGet+0x30>
 8001362:	2480      	movs	r4, #128	; 0x80
 8001364:	4605      	mov	r5, r0
 8001366:	4606      	mov	r6, r0
 8001368:	4607      	mov	r7, r0
 800136a:	e7ee      	b.n	800134a <svcMessageGet+0x3a>
 800136c:	2500      	movs	r5, #0
 800136e:	2480      	movs	r4, #128	; 0x80
 8001370:	462e      	mov	r6, r5
 8001372:	462f      	mov	r7, r5
 8001374:	e7e9      	b.n	800134a <svcMessageGet+0x3a>

08001376 <isrMessagePut>:
 8001376:	b570      	push	{r4, r5, r6, lr}
 8001378:	460e      	mov	r6, r1
 800137a:	4614      	mov	r4, r2
 800137c:	4605      	mov	r5, r0
 800137e:	b160      	cbz	r0, 800139a <isrMessagePut+0x24>
 8001380:	b95a      	cbnz	r2, 800139a <isrMessagePut+0x24>
 8001382:	7803      	ldrb	r3, [r0, #0]
 8001384:	2b01      	cmp	r3, #1
 8001386:	d108      	bne.n	800139a <isrMessagePut+0x24>
 8001388:	f7ff fc26 	bl	8000bd8 <rt_mbx_check>
 800138c:	b138      	cbz	r0, 800139e <isrMessagePut+0x28>
 800138e:	4628      	mov	r0, r5
 8001390:	4631      	mov	r1, r6
 8001392:	f7ff fc25 	bl	8000be0 <isr_mbx_send>
 8001396:	4620      	mov	r0, r4
 8001398:	bd70      	pop	{r4, r5, r6, pc}
 800139a:	2080      	movs	r0, #128	; 0x80
 800139c:	bd70      	pop	{r4, r5, r6, pc}
 800139e:	2081      	movs	r0, #129	; 0x81
 80013a0:	bd70      	pop	{r4, r5, r6, pc}
	...

080013a4 <sysTimerTick>:
 80013a4:	b5f8      	push	{r3, r4, r5, r6, r7, lr}
 80013a6:	4e11      	ldr	r6, [pc, #68]	; (80013ec <sysTimerTick+0x48>)
 80013a8:	6834      	ldr	r4, [r6, #0]
 80013aa:	b12c      	cbz	r4, 80013b8 <sysTimerTick+0x14>
 80013ac:	68a3      	ldr	r3, [r4, #8]
 80013ae:	4f10      	ldr	r7, [pc, #64]	; (80013f0 <sysTimerTick+0x4c>)
 80013b0:	3b01      	subs	r3, #1
 80013b2:	60a3      	str	r3, [r4, #8]
 80013b4:	68a2      	ldr	r2, [r4, #8]
 80013b6:	b102      	cbz	r2, 80013ba <sysTimerTick+0x16>
 80013b8:	bdf8      	pop	{r3, r4, r5, r6, r7, pc}
 80013ba:	6825      	ldr	r5, [r4, #0]
 80013bc:	6838      	ldr	r0, [r7, #0]
 80013be:	6035      	str	r5, [r6, #0]
 80013c0:	4621      	mov	r1, r4
 80013c2:	f7ff ffd8 	bl	8001376 <isrMessagePut>
 80013c6:	b110      	cbz	r0, 80013ce <sysTimerTick+0x2a>
 80013c8:	2004      	movs	r0, #4
 80013ca:	f7ff f91d 	bl	8000608 <os_error>
 80013ce:	7963      	ldrb	r3, [r4, #5]
 80013d0:	2b01      	cmp	r3, #1
 80013d2:	d107      	bne.n	80013e4 <sysTimerTick+0x40>
 80013d4:	68e1      	ldr	r1, [r4, #12]
 80013d6:	4620      	mov	r0, r4
 80013d8:	f7ff fcfe 	bl	8000dd8 <rt_timer_insert>
 80013dc:	2d00      	cmp	r5, #0
 80013de:	d0eb      	beq.n	80013b8 <sysTimerTick+0x14>
 80013e0:	462c      	mov	r4, r5
 80013e2:	e7e7      	b.n	80013b4 <sysTimerTick+0x10>
 80013e4:	2301      	movs	r3, #1
 80013e6:	7123      	strb	r3, [r4, #4]
 80013e8:	e7f8      	b.n	80013dc <sysTimerTick+0x38>
 80013ea:	bf00      	nop
 80013ec:	200019d0 	.word	0x200019d0
 80013f0:	20001490 	.word	0x20001490

080013f4 <isrMessageGet>:
 80013f4:	b57f      	push	{r0, r1, r2, r3, r4, r5, r6, lr}
 80013f6:	4604      	mov	r4, r0
 80013f8:	4616      	mov	r6, r2
 80013fa:	4608      	mov	r0, r1
 80013fc:	b101      	cbz	r1, 8001400 <isrMessageGet+0xc>
 80013fe:	b122      	cbz	r2, 800140a <isrMessageGet+0x16>
 8001400:	2380      	movs	r3, #128	; 0x80
 8001402:	6023      	str	r3, [r4, #0]
 8001404:	4620      	mov	r0, r4
 8001406:	b004      	add	sp, #16
 8001408:	bd70      	pop	{r4, r5, r6, pc}
 800140a:	780b      	ldrb	r3, [r1, #0]
 800140c:	2b01      	cmp	r3, #1
 800140e:	d1f7      	bne.n	8001400 <isrMessageGet+0xc>
 8001410:	a902      	add	r1, sp, #8
 8001412:	f7ff fbec 	bl	8000bee <isr_mbx_receive>
 8001416:	2804      	cmp	r0, #4
 8001418:	bf08      	it	eq
 800141a:	2310      	moveq	r3, #16
 800141c:	ad01      	add	r5, sp, #4
 800141e:	bf14      	ite	ne
 8001420:	9601      	strne	r6, [sp, #4]
 8001422:	9301      	streq	r3, [sp, #4]
 8001424:	e895 0007 	ldmia.w	r5, {r0, r1, r2}
 8001428:	e884 0007 	stmia.w	r4, {r0, r1, r2}
 800142c:	e7ea      	b.n	8001404 <isrMessageGet+0x10>
	...

08001430 <osMessageGet>:
 8001430:	b538      	push	{r3, r4, r5, lr}
 8001432:	4604      	mov	r4, r0
 8001434:	4615      	mov	r5, r2
 8001436:	f3ef 8010 	mrs	r0, PRIMASK
 800143a:	b910      	cbnz	r0, 8001442 <osMessageGet+0x12>
 800143c:	f3ef 8005 	mrs	r0, IPSR
 8001440:	b128      	cbz	r0, 800144e <osMessageGet+0x1e>
 8001442:	462a      	mov	r2, r5
 8001444:	4620      	mov	r0, r4
 8001446:	f7ff ffd5 	bl	80013f4 <isrMessageGet>
 800144a:	4620      	mov	r0, r4
 800144c:	bd38      	pop	{r3, r4, r5, pc}
 800144e:	4608      	mov	r0, r1
 8001450:	4611      	mov	r1, r2
 8001452:	f8df c00c 	ldr.w	r12, [pc, #12]	; 8001460 <osMessageGet+0x30>
 8001456:	df00      	svc	0
 8001458:	e884 0007 	stmia.w	r4, {r0, r1, r2}
 800145c:	e7f5      	b.n	800144a <osMessageGet+0x1a>
 800145e:	0000      	.short	0x0000
 8001460:	08001311 	.word	0x08001311

08001464 <osTimerThread>:
 8001464:	b57f      	push	{r0, r1, r2, r3, r4, r5, r6, lr}
 8001466:	4c0a      	ldr	r4, [pc, #40]	; (8001490 <osTimerThread+0x2c>)
 8001468:	6821      	ldr	r1, [r4, #0]
 800146a:	f04f 32ff 	mov.w	r2, #4294967295	; 0xffffffff
 800146e:	a803      	add	r0, sp, #12
 8001470:	f7ff ffde 	bl	8001430 <osMessageGet>
 8001474:	9b03      	ldr	r3, [sp, #12]
 8001476:	2b10      	cmp	r3, #16
 8001478:	d1f6      	bne.n	8001468 <osTimerThread+0x4>
 800147a:	9904      	ldr	r1, [sp, #16]
 800147c:	a801      	add	r0, sp, #4
 800147e:	f7ff fdf7 	bl	8001070 <osTimerCall>
 8001482:	9b01      	ldr	r3, [sp, #4]
 8001484:	2b00      	cmp	r3, #0
 8001486:	d0ef      	beq.n	8001468 <osTimerThread+0x4>
 8001488:	9802      	ldr	r0, [sp, #8]
 800148a:	4798      	blx	r3
 800148c:	e7ec      	b.n	8001468 <osTimerThread+0x4>
 800148e:	bf00      	nop
 8001490:	20001490 	.word	0x20001490

08001494 <rt_switch_req>:
 8001494:	4b05      	ldr	r3, [pc, #20]	; (80014ac <rt_switch_req+0x18>)
 8001496:	6058      	str	r0, [r3, #4]
 8001498:	2302      	movs	r3, #2
 800149a:	7043      	strb	r3, [r0, #1]
 800149c:	4b04      	ldr	r3, [pc, #16]	; (80014b0 <rt_switch_req+0x1c>)
 800149e:	681b      	ldr	r3, [r3, #0]
 80014a0:	b11b      	cbz	r3, 80014aa <rt_switch_req+0x16>
 80014a2:	691b      	ldr	r3, [r3, #16]
 80014a4:	b10b      	cbz	r3, 80014aa <rt_switch_req+0x16>
 80014a6:	6bc0      	ldr	r0, [r0, #60]	; 0x3c
 80014a8:	4718      	bx	r3
 80014aa:	4770      	bx	lr
 80014ac:	200019d4 	.word	0x200019d4
 80014b0:	200019bc 	.word	0x200019bc

080014b4 <rt_dispatch.part.0>:
 80014b4:	b508      	push	{r3, lr}
 80014b6:	4803      	ldr	r0, [pc, #12]	; (80014c4 <rt_dispatch.part.0+0x10>)
 80014b8:	f7ff f90c 	bl	80006d4 <rt_get_first>
 80014bc:	e8bd 4008 	ldmia.w	sp!, {r3, lr}
 80014c0:	f7ff bfe8 	b.w	8001494 <rt_switch_req>
 80014c4:	20001988 	.word	0x20001988

080014c8 <rt_dispatch>:
 80014c8:	b570      	push	{r4, r5, r6, lr}
 80014ca:	4604      	mov	r4, r0
 80014cc:	b918      	cbnz	r0, 80014d6 <rt_dispatch+0xe>
 80014ce:	e8bd 4070 	ldmia.w	sp!, {r4, r5, r6, lr}
 80014d2:	f7ff bfef 	b.w	80014b4 <rt_dispatch.part.0>
 80014d6:	4e0c      	ldr	r6, [pc, #48]	; (8001508 <rt_dispatch+0x40>)
 80014d8:	78a2      	ldrb	r2, [r4, #2]
 80014da:	6830      	ldr	r0, [r6, #0]
 80014dc:	7883      	ldrb	r3, [r0, #2]
 80014de:	429a      	cmp	r2, r3
 80014e0:	f04f 0501 	mov.w	r5, #1
 80014e4:	d908      	bls.n	80014f8 <rt_dispatch+0x30>
 80014e6:	f7ff f907 	bl	80006f8 <rt_put_rdy_first>
 80014ea:	6833      	ldr	r3, [r6, #0]
 80014ec:	705d      	strb	r5, [r3, #1]
 80014ee:	4620      	mov	r0, r4
 80014f0:	e8bd 4070 	ldmia.w	sp!, {r4, r5, r6, lr}
 80014f4:	f7ff bfce 	b.w	8001494 <rt_switch_req>
 80014f8:	7065      	strb	r5, [r4, #1]
 80014fa:	4621      	mov	r1, r4
 80014fc:	4803      	ldr	r0, [pc, #12]	; (800150c <rt_dispatch+0x44>)
 80014fe:	e8bd 4070 	ldmia.w	sp!, {r4, r5, r6, lr}
 8001502:	f7ff b8cf 	b.w	80006a4 <rt_put_prio>
 8001506:	bf00      	nop
 8001508:	200019d4 	.word	0x200019d4
 800150c:	20001988 	.word	0x20001988

08001510 <rt_block>:
 8001510:	b538      	push	{r3, r4, r5, lr}
 8001512:	460d      	mov	r5, r1
 8001514:	4601      	mov	r1, r0
 8001516:	b180      	cbz	r0, 800153a <rt_block+0x2a>
 8001518:	f64f 73ff 	movw	r3, #65535	; 0xffff
 800151c:	4298      	cmp	r0, r3
 800151e:	4c07      	ldr	r4, [pc, #28]	; (800153c <rt_block+0x2c>)
 8001520:	d002      	beq.n	8001528 <rt_block+0x18>
 8001522:	6820      	ldr	r0, [r4, #0]
 8001524:	f7ff f8f2 	bl	800070c <rt_put_dly>
 8001528:	6823      	ldr	r3, [r4, #0]
 800152a:	4805      	ldr	r0, [pc, #20]	; (8001540 <rt_block+0x30>)
 800152c:	705d      	strb	r5, [r3, #1]
 800152e:	f7ff f8d1 	bl	80006d4 <rt_get_first>
 8001532:	e8bd 4038 	ldmia.w	sp!, {r3, r4, r5, lr}
 8001536:	f7ff bfad 	b.w	8001494 <rt_switch_req>
 800153a:	bd38      	pop	{r3, r4, r5, pc}
 800153c:	200019d4 	.word	0x200019d4
 8001540:	20001988 	.word	0x20001988

08001544 <rt_tsk_self>:
 8001544:	4b02      	ldr	r3, [pc, #8]	; (8001550 <rt_tsk_self+0xc>)
 8001546:	6818      	ldr	r0, [r3, #0]
 8001548:	b100      	cbz	r0, 800154c <rt_tsk_self+0x8>
 800154a:	78c0      	ldrb	r0, [r0, #3]
 800154c:	4770      	bx	lr
 800154e:	bf00      	nop
 8001550:	200019d4 	.word	0x200019d4

08001554 <rt_tsk_prio>:
 8001554:	b510      	push	{r4, lr}
 8001556:	b9a8      	cbnz	r0, 8001584 <rt_tsk_prio+0x30>
 8001558:	4b19      	ldr	r3, [pc, #100]	; (80015c0 <rt_tsk_prio+0x6c>)
 800155a:	681b      	ldr	r3, [r3, #0]
 800155c:	7099      	strb	r1, [r3, #2]
 800155e:	f883 1024 	strb.w	r1, [r3, #36]	; 0x24
 8001562:	4818      	ldr	r0, [pc, #96]	; (80015c4 <rt_tsk_prio+0x70>)
 8001564:	6843      	ldr	r3, [r0, #4]
 8001566:	789b      	ldrb	r3, [r3, #2]
 8001568:	428b      	cmp	r3, r1
 800156a:	d801      	bhi.n	8001570 <rt_tsk_prio+0x1c>
 800156c:	2000      	movs	r0, #0
 800156e:	bd10      	pop	{r4, pc}
 8001570:	4c13      	ldr	r4, [pc, #76]	; (80015c0 <rt_tsk_prio+0x6c>)
 8001572:	6821      	ldr	r1, [r4, #0]
 8001574:	f7ff f896 	bl	80006a4 <rt_put_prio>
 8001578:	6823      	ldr	r3, [r4, #0]
 800157a:	2201      	movs	r2, #1
 800157c:	705a      	strb	r2, [r3, #1]
 800157e:	f7ff ff99 	bl	80014b4 <rt_dispatch.part.0>
 8001582:	e7f3      	b.n	800156c <rt_tsk_prio+0x18>
 8001584:	4b10      	ldr	r3, [pc, #64]	; (80015c8 <rt_tsk_prio+0x74>)
 8001586:	881b      	ldrh	r3, [r3, #0]
 8001588:	4298      	cmp	r0, r3
 800158a:	d817      	bhi.n	80015bc <rt_tsk_prio+0x68>
 800158c:	3801      	subs	r0, #1
 800158e:	4b0f      	ldr	r3, [pc, #60]	; (80015cc <rt_tsk_prio+0x78>)
 8001590:	f853 4020 	ldr.w	r4, [r3, r0, lsl #2]
 8001594:	b194      	cbz	r4, 80015bc <rt_tsk_prio+0x68>
 8001596:	4b0a      	ldr	r3, [pc, #40]	; (80015c0 <rt_tsk_prio+0x6c>)
 8001598:	70a1      	strb	r1, [r4, #2]
 800159a:	681b      	ldr	r3, [r3, #0]
 800159c:	f884 1024 	strb.w	r1, [r4, #36]	; 0x24
 80015a0:	429c      	cmp	r4, r3
 80015a2:	d0de      	beq.n	8001562 <rt_tsk_prio+0xe>
 80015a4:	4620      	mov	r0, r4
 80015a6:	f7ff f923 	bl	80007f0 <rt_resort_prio>
 80015aa:	7863      	ldrb	r3, [r4, #1]
 80015ac:	2b01      	cmp	r3, #1
 80015ae:	d1dd      	bne.n	800156c <rt_tsk_prio+0x18>
 80015b0:	4804      	ldr	r0, [pc, #16]	; (80015c4 <rt_tsk_prio+0x70>)
 80015b2:	f7ff f88f 	bl	80006d4 <rt_get_first>
 80015b6:	f7ff ff87 	bl	80014c8 <rt_dispatch>
 80015ba:	e7d7      	b.n	800156c <rt_tsk_prio+0x18>
 80015bc:	20ff      	movs	r0, #255	; 0xff
 80015be:	bd10      	pop	{r4, pc}
 80015c0:	200019d4 	.word	0x200019d4
 80015c4:	20001988 	.word	0x20001988
 80015c8:	080063e0 	.word	0x080063e0
 80015cc:	200013f0 	.word	0x200013f0

080015d0 <rt_tsk_create>:
 80015d0:	e92d 47f0 	stmdb	sp!, {r4, r5, r6, r7, r8, r9, r10, lr}
 80015d4:	f011 0fff 	tst.w	r1, #255	; 0xff
 80015d8:	460d      	mov	r5, r1
 80015da:	4680      	mov	r8, r0
 80015dc:	4823      	ldr	r0, [pc, #140]	; (800166c <rt_tsk_create+0x9c>)
 80015de:	4616      	mov	r6, r2
 80015e0:	469a      	mov	r10, r3
 80015e2:	bf08      	it	eq
 80015e4:	3501      	addeq	r5, #1
 80015e6:	f7ff fa72 	bl	8000ace <rt_alloc_box>
 80015ea:	4604      	mov	r4, r0
 80015ec:	b920      	cbnz	r0, 80015f8 <rt_tsk_create+0x28>
 80015ee:	f04f 0900 	mov.w	r9, #0
 80015f2:	4648      	mov	r0, r9
 80015f4:	e8bd 87f0 	ldmia.w	sp!, {r4, r5, r6, r7, r8, r9, r10, pc}
 80015f8:	4b1d      	ldr	r3, [pc, #116]	; (8001670 <rt_tsk_create+0xa0>)
 80015fa:	6306      	str	r6, [r0, #48]	; 0x30
 80015fc:	881b      	ldrh	r3, [r3, #0]
 80015fe:	4e1d      	ldr	r6, [pc, #116]	; (8001674 <rt_tsk_create+0xa4>)
 8001600:	0a28      	lsrs	r0, r5, #8
 8001602:	62a0      	str	r0, [r4, #40]	; 0x28
 8001604:	2100      	movs	r1, #0
 8001606:	428b      	cmp	r3, r1
 8001608:	f101 0901 	add.w	r9, r1, #1
 800160c:	d0ef      	beq.n	80015ee <rt_tsk_create+0x1e>
 800160e:	eb06 0289 	add.w	r2, r6, r9, lsl #2
 8001612:	460f      	mov	r7, r1
 8001614:	f852 2c04 	ldr.w	r2, [r2, #-4]
 8001618:	4649      	mov	r1, r9
 800161a:	2a00      	cmp	r2, #0
 800161c:	d1f3      	bne.n	8001606 <rt_tsk_create+0x36>
 800161e:	b2ed      	uxtb	r5, r5
 8001620:	2301      	movs	r3, #1
 8001622:	f884 9003 	strb.w	r9, [r4, #3]
 8001626:	f8c4 a01c 	str.w	r10, [r4, #28]
 800162a:	f8c4 a038 	str.w	r10, [r4, #56]	; 0x38
 800162e:	7022      	strb	r2, [r4, #0]
 8001630:	7063      	strb	r3, [r4, #1]
 8001632:	70a5      	strb	r5, [r4, #2]
 8001634:	f884 5024 	strb.w	r5, [r4, #36]	; 0x24
 8001638:	6062      	str	r2, [r4, #4]
 800163a:	60a2      	str	r2, [r4, #8]
 800163c:	60e2      	str	r2, [r4, #12]
 800163e:	6122      	str	r2, [r4, #16]
 8001640:	6222      	str	r2, [r4, #32]
 8001642:	82a2      	strh	r2, [r4, #20]
 8001644:	82e2      	strh	r2, [r4, #22]
 8001646:	8322      	strh	r2, [r4, #24]
 8001648:	8362      	strh	r2, [r4, #26]
 800164a:	f884 2025 	strb.w	r2, [r4, #37]	; 0x25
 800164e:	b918      	cbnz	r0, 8001658 <rt_tsk_create+0x88>
 8001650:	4809      	ldr	r0, [pc, #36]	; (8001678 <rt_tsk_create+0xa8>)
 8001652:	f7ff fa3c 	bl	8000ace <rt_alloc_box>
 8001656:	6320      	str	r0, [r4, #48]	; 0x30
 8001658:	4620      	mov	r0, r4
 800165a:	4641      	mov	r1, r8
 800165c:	f7ff f9b2 	bl	80009c4 <rt_init_stack>
 8001660:	4620      	mov	r0, r4
 8001662:	f846 4027 	str.w	r4, [r6, r7, lsl #2]
 8001666:	f7ff ff2f 	bl	80014c8 <rt_dispatch>
 800166a:	e7c2      	b.n	80015f2 <rt_tsk_create+0x22>
 800166c:	200017b8 	.word	0x200017b8
 8001670:	080063e0 	.word	0x080063e0
 8001674:	200013f0 	.word	0x200013f0
 8001678:	200011e0 	.word	0x200011e0

0800167c <rt_tsk_delete>:
 800167c:	e92d 4ff8 	stmdb	sp!, {r3, r4, r5, r6, r7, r8, r9, r10, r11, lr}
 8001680:	4d4d      	ldr	r5, [pc, #308]	; (80017b8 <rt_tsk_delete+0x13c>)
 8001682:	b118      	cbz	r0, 800168c <rt_tsk_delete+0x10>
 8001684:	682b      	ldr	r3, [r5, #0]
 8001686:	78db      	ldrb	r3, [r3, #3]
 8001688:	4298      	cmp	r0, r3
 800168a:	d141      	bne.n	8001710 <rt_tsk_delete+0x94>
 800168c:	682c      	ldr	r4, [r5, #0]
 800168e:	f8df 813c 	ldr.w	r8, [pc, #316]	; 80017cc <rt_tsk_delete+0x150>
 8001692:	2300      	movs	r3, #0
 8001694:	7063      	strb	r3, [r4, #1]
 8001696:	f002 fec6 	bl	8004426 <rt_get_PSP>
 800169a:	62e0      	str	r0, [r4, #44]	; 0x2c
 800169c:	f7ff f980 	bl	80009a0 <rt_stk_check>
 80016a0:	682b      	ldr	r3, [r5, #0]
 80016a2:	6a1c      	ldr	r4, [r3, #32]
 80016a4:	2701      	movs	r7, #1
 80016a6:	b9a4      	cbnz	r4, 80016d2 <rt_tsk_delete+0x56>
 80016a8:	682a      	ldr	r2, [r5, #0]
 80016aa:	4944      	ldr	r1, [pc, #272]	; (80017bc <rt_tsk_delete+0x140>)
 80016ac:	78d3      	ldrb	r3, [r2, #3]
 80016ae:	4844      	ldr	r0, [pc, #272]	; (80017c0 <rt_tsk_delete+0x144>)
 80016b0:	3b01      	subs	r3, #1
 80016b2:	f841 4023 	str.w	r4, [r1, r3, lsl #2]
 80016b6:	6b11      	ldr	r1, [r2, #48]	; 0x30
 80016b8:	f7ff fa16 	bl	8000ae8 <rt_free_box>
 80016bc:	6829      	ldr	r1, [r5, #0]
 80016be:	4841      	ldr	r0, [pc, #260]	; (80017c4 <rt_tsk_delete+0x148>)
 80016c0:	630c      	str	r4, [r1, #48]	; 0x30
 80016c2:	f7ff fa11 	bl	8000ae8 <rt_free_box>
 80016c6:	602c      	str	r4, [r5, #0]
 80016c8:	f7ff fef4 	bl	80014b4 <rt_dispatch.part.0>
 80016cc:	4620      	mov	r0, r4
 80016ce:	e8bd 8ff8 	ldmia.w	sp!, {r3, r4, r5, r6, r7, r8, r9, r10, r11, pc}
 80016d2:	6863      	ldr	r3, [r4, #4]
 80016d4:	b1b3      	cbz	r3, 8001704 <rt_tsk_delete+0x88>
 80016d6:	4620      	mov	r0, r4
 80016d8:	f7fe fffc 	bl	80006d4 <rt_get_first>
 80016dc:	2100      	movs	r1, #0
 80016de:	4606      	mov	r6, r0
 80016e0:	f7ff f9bc 	bl	8000a5c <rt_ret_val>
 80016e4:	4630      	mov	r0, r6
 80016e6:	f7ff f89b 	bl	8000820 <rt_rmv_dly>
 80016ea:	7077      	strb	r7, [r6, #1]
 80016ec:	4631      	mov	r1, r6
 80016ee:	4640      	mov	r0, r8
 80016f0:	f7fe ffd8 	bl	80006a4 <rt_put_prio>
 80016f4:	68e3      	ldr	r3, [r4, #12]
 80016f6:	6a32      	ldr	r2, [r6, #32]
 80016f8:	8067      	strh	r7, [r4, #2]
 80016fa:	60a6      	str	r6, [r4, #8]
 80016fc:	60e2      	str	r2, [r4, #12]
 80016fe:	6234      	str	r4, [r6, #32]
 8001700:	461c      	mov	r4, r3
 8001702:	e7d0      	b.n	80016a6 <rt_tsk_delete+0x2a>
 8001704:	68e2      	ldr	r2, [r4, #12]
 8001706:	8063      	strh	r3, [r4, #2]
 8001708:	60a3      	str	r3, [r4, #8]
 800170a:	60e3      	str	r3, [r4, #12]
 800170c:	4614      	mov	r4, r2
 800170e:	e7ca      	b.n	80016a6 <rt_tsk_delete+0x2a>
 8001710:	4b2d      	ldr	r3, [pc, #180]	; (80017c8 <rt_tsk_delete+0x14c>)
 8001712:	881b      	ldrh	r3, [r3, #0]
 8001714:	4298      	cmp	r0, r3
 8001716:	d84d      	bhi.n	80017b4 <rt_tsk_delete+0x138>
 8001718:	4b28      	ldr	r3, [pc, #160]	; (80017bc <rt_tsk_delete+0x140>)
 800171a:	1e47      	subs	r7, r0, #1
 800171c:	4699      	mov	r9, r3
 800171e:	f853 6027 	ldr.w	r6, [r3, r7, lsl #2]
 8001722:	2e00      	cmp	r6, #0
 8001724:	d046      	beq.n	80017b4 <rt_tsk_delete+0x138>
 8001726:	4630      	mov	r0, r6
 8001728:	f7ff f84c 	bl	80007c4 <rt_rmv_list>
 800172c:	4630      	mov	r0, r6
 800172e:	f7ff f877 	bl	8000820 <rt_rmv_dly>
 8001732:	f8df b098 	ldr.w	r11, [pc, #152]	; 80017cc <rt_tsk_delete+0x150>
 8001736:	6a34      	ldr	r4, [r6, #32]
 8001738:	f04f 0a01 	mov.w	r10, #1
 800173c:	b9b4      	cbnz	r4, 800176c <rt_tsk_delete+0xf0>
 800173e:	6b31      	ldr	r1, [r6, #48]	; 0x30
 8001740:	481f      	ldr	r0, [pc, #124]	; (80017c0 <rt_tsk_delete+0x144>)
 8001742:	f849 4027 	str.w	r4, [r9, r7, lsl #2]
 8001746:	f7ff f9cf 	bl	8000ae8 <rt_free_box>
 800174a:	4631      	mov	r1, r6
 800174c:	6334      	str	r4, [r6, #48]	; 0x30
 800174e:	481d      	ldr	r0, [pc, #116]	; (80017c4 <rt_tsk_delete+0x148>)
 8001750:	f7ff f9ca 	bl	8000ae8 <rt_free_box>
 8001754:	481d      	ldr	r0, [pc, #116]	; (80017cc <rt_tsk_delete+0x150>)
 8001756:	6829      	ldr	r1, [r5, #0]
 8001758:	6843      	ldr	r3, [r0, #4]
 800175a:	789a      	ldrb	r2, [r3, #2]
 800175c:	788b      	ldrb	r3, [r1, #2]
 800175e:	429a      	cmp	r2, r3
 8001760:	d9b4      	bls.n	80016cc <rt_tsk_delete+0x50>
 8001762:	2301      	movs	r3, #1
 8001764:	704b      	strb	r3, [r1, #1]
 8001766:	f7fe ff9d 	bl	80006a4 <rt_put_prio>
 800176a:	e7ad      	b.n	80016c8 <rt_tsk_delete+0x4c>
 800176c:	6863      	ldr	r3, [r4, #4]
 800176e:	b1db      	cbz	r3, 80017a8 <rt_tsk_delete+0x12c>
 8001770:	4620      	mov	r0, r4
 8001772:	f7fe ffaf 	bl	80006d4 <rt_get_first>
 8001776:	2100      	movs	r1, #0
 8001778:	4680      	mov	r8, r0
 800177a:	f7ff f96f 	bl	8000a5c <rt_ret_val>
 800177e:	4640      	mov	r0, r8
 8001780:	f7ff f84e 	bl	8000820 <rt_rmv_dly>
 8001784:	f888 a001 	strb.w	r10, [r8, #1]
 8001788:	4641      	mov	r1, r8
 800178a:	4658      	mov	r0, r11
 800178c:	f7fe ff8a 	bl	80006a4 <rt_put_prio>
 8001790:	68e3      	ldr	r3, [r4, #12]
 8001792:	f8d8 2020 	ldr.w	r2, [r8, #32]
 8001796:	f8a4 a002 	strh.w	r10, [r4, #2]
 800179a:	f8c4 8008 	str.w	r8, [r4, #8]
 800179e:	60e2      	str	r2, [r4, #12]
 80017a0:	f8c8 4020 	str.w	r4, [r8, #32]
 80017a4:	461c      	mov	r4, r3
 80017a6:	e7c9      	b.n	800173c <rt_tsk_delete+0xc0>
 80017a8:	68e2      	ldr	r2, [r4, #12]
 80017aa:	8063      	strh	r3, [r4, #2]
 80017ac:	60a3      	str	r3, [r4, #8]
 80017ae:	60e3      	str	r3, [r4, #12]
 80017b0:	4614      	mov	r4, r2
 80017b2:	e7c3      	b.n	800173c <rt_tsk_delete+0xc0>
 80017b4:	24ff      	movs	r4, #255	; 0xff
 80017b6:	e789      	b.n	80016cc <rt_tsk_delete+0x50>
 80017b8:	200019d4 	.word	0x200019d4
 80017bc:	200013f0 	.word	0x200013f0
 80017c0:	200011e0 	.word	0x200011e0
 80017c4:	200017b8 	.word	0x200017b8
 80017c8:	080063e0 	.word	0x080063e0
 80017cc:	20001988 	.word	0x20001988

080017d0 <rt_sys_init>:
 80017d0:	b538      	push	{r3, r4, r5, lr}
 80017d2:	4b2c      	ldr	r3, [pc, #176]	; (8001884 <rt_sys_init+0xb4>)
 80017d4:	492c      	ldr	r1, [pc, #176]	; (8001888 <rt_sys_init+0xb8>)
 80017d6:	881a      	ldrh	r2, [r3, #0]
 80017d8:	2300      	movs	r3, #0
 80017da:	4618      	mov	r0, r3
 80017dc:	4293      	cmp	r3, r2
 80017de:	d34d      	bcc.n	800187c <rt_sys_init+0xac>
 80017e0:	4b2a      	ldr	r3, [pc, #168]	; (800188c <rt_sys_init+0xbc>)
 80017e2:	482b      	ldr	r0, [pc, #172]	; (8001890 <rt_sys_init+0xc0>)
 80017e4:	8819      	ldrh	r1, [r3, #0]
 80017e6:	4c2b      	ldr	r4, [pc, #172]	; (8001894 <rt_sys_init+0xc4>)
 80017e8:	2240      	movs	r2, #64	; 0x40
 80017ea:	f7ff f94b 	bl	8000a84 <_init_box>
 80017ee:	4b2a      	ldr	r3, [pc, #168]	; (8001898 <rt_sys_init+0xc8>)
 80017f0:	482a      	ldr	r0, [pc, #168]	; (800189c <rt_sys_init+0xcc>)
 80017f2:	881a      	ldrh	r2, [r3, #0]
 80017f4:	4b2a      	ldr	r3, [pc, #168]	; (80018a0 <rt_sys_init+0xd0>)
 80017f6:	f042 4200 	orr.w	r2, r2, #2147483648	; 0x80000000
 80017fa:	6819      	ldr	r1, [r3, #0]
 80017fc:	f7ff f942 	bl	8000a84 <_init_box>
 8001800:	4b28      	ldr	r3, [pc, #160]	; (80018a4 <rt_sys_init+0xd4>)
 8001802:	8819      	ldrh	r1, [r3, #0]
 8001804:	4b28      	ldr	r3, [pc, #160]	; (80018a8 <rt_sys_init+0xd8>)
 8001806:	2208      	movs	r2, #8
 8001808:	6818      	ldr	r0, [r3, #0]
 800180a:	f7ff f93b 	bl	8000a84 <_init_box>
 800180e:	23ff      	movs	r3, #255	; 0xff
 8001810:	2500      	movs	r5, #0
 8001812:	70e3      	strb	r3, [r4, #3]
 8001814:	4821      	ldr	r0, [pc, #132]	; (800189c <rt_sys_init+0xcc>)
 8001816:	62a5      	str	r5, [r4, #40]	; 0x28
 8001818:	2301      	movs	r3, #1
 800181a:	7063      	strb	r3, [r4, #1]
 800181c:	7025      	strb	r5, [r4, #0]
 800181e:	70a5      	strb	r5, [r4, #2]
 8001820:	f884 5024 	strb.w	r5, [r4, #36]	; 0x24
 8001824:	6065      	str	r5, [r4, #4]
 8001826:	60a5      	str	r5, [r4, #8]
 8001828:	60e5      	str	r5, [r4, #12]
 800182a:	6125      	str	r5, [r4, #16]
 800182c:	6225      	str	r5, [r4, #32]
 800182e:	82a5      	strh	r5, [r4, #20]
 8001830:	82e5      	strh	r5, [r4, #22]
 8001832:	8325      	strh	r5, [r4, #24]
 8001834:	8365      	strh	r5, [r4, #26]
 8001836:	f884 5025 	strb.w	r5, [r4, #37]	; 0x25
 800183a:	f7ff f948 	bl	8000ace <rt_alloc_box>
 800183e:	491b      	ldr	r1, [pc, #108]	; (80018ac <rt_sys_init+0xdc>)
 8001840:	6320      	str	r0, [r4, #48]	; 0x30
 8001842:	4620      	mov	r0, r4
 8001844:	f7ff f8be 	bl	80009c4 <rt_init_stack>
 8001848:	4b19      	ldr	r3, [pc, #100]	; (80018b0 <rt_sys_init+0xe0>)
 800184a:	2204      	movs	r2, #4
 800184c:	701a      	strb	r2, [r3, #0]
 800184e:	605d      	str	r5, [r3, #4]
 8001850:	4b18      	ldr	r3, [pc, #96]	; (80018b4 <rt_sys_init+0xe4>)
 8001852:	701a      	strb	r2, [r3, #0]
 8001854:	60dd      	str	r5, [r3, #12]
 8001856:	611d      	str	r5, [r3, #16]
 8001858:	829d      	strh	r5, [r3, #20]
 800185a:	4b17      	ldr	r3, [pc, #92]	; (80018b8 <rt_sys_init+0xe8>)
 800185c:	4620      	mov	r0, r4
 800185e:	601c      	str	r4, [r3, #0]
 8001860:	2302      	movs	r3, #2
 8001862:	7063      	strb	r3, [r4, #1]
 8001864:	f7ff fe16 	bl	8001494 <rt_switch_req>
 8001868:	4a14      	ldr	r2, [pc, #80]	; (80018bc <rt_sys_init+0xec>)
 800186a:	4b15      	ldr	r3, [pc, #84]	; (80018c0 <rt_sys_init+0xf0>)
 800186c:	7812      	ldrb	r2, [r2, #0]
 800186e:	701d      	strb	r5, [r3, #0]
 8001870:	705d      	strb	r5, [r3, #1]
 8001872:	70da      	strb	r2, [r3, #3]
 8001874:	e8bd 4038 	ldmia.w	sp!, {r3, r4, r5, lr}
 8001878:	f7ff ba7e 	b.w	8000d78 <rt_init_robin>
 800187c:	f841 0023 	str.w	r0, [r1, r3, lsl #2]
 8001880:	3301      	adds	r3, #1
 8001882:	e7ab      	b.n	80017dc <rt_sys_init+0xc>
 8001884:	080063e0 	.word	0x080063e0
 8001888:	200013f0 	.word	0x200013f0
 800188c:	080063ac 	.word	0x080063ac
 8001890:	200017b8 	.word	0x200017b8
 8001894:	200019dc 	.word	0x200019dc
 8001898:	080063fc 	.word	0x080063fc
 800189c:	200011e0 	.word	0x200011e0
 80018a0:	080063a8 	.word	0x080063a8
 80018a4:	080063ae 	.word	0x080063ae
 80018a8:	20000518 	.word	0x20000518
 80018ac:	08000605 	.word	0x08000605
 80018b0:	20001988 	.word	0x20001988
 80018b4:	200019a0 	.word	0x200019a0
 80018b8:	200019d4 	.word	0x200019d4
 80018bc:	080063dd 	.word	0x080063dd
 80018c0:	2000140c 	.word	0x2000140c

080018c4 <rt_sys_start>:
 80018c4:	b508      	push	{r3, lr}
 80018c6:	4b1e      	ldr	r3, [pc, #120]	; (8001940 <rt_sys_start+0x7c>)
 80018c8:	681a      	ldr	r2, [r3, #0]
 80018ca:	f442 027f 	orr.w	r2, r2, #16711680	; 0xff0000
 80018ce:	601a      	str	r2, [r3, #0]
 80018d0:	681b      	ldr	r3, [r3, #0]
 80018d2:	021b      	lsls	r3, r3, #8
 80018d4:	f003 437f 	and.w	r3, r3, #4278190080	; 0xff000000
 80018d8:	43db      	mvns	r3, r3
 80018da:	fab3 f383 	clz	r3, r3
 80018de:	4a19      	ldr	r2, [pc, #100]	; (8001944 <rt_sys_start+0x80>)
 80018e0:	4819      	ldr	r0, [pc, #100]	; (8001948 <rt_sys_start+0x84>)
 80018e2:	6812      	ldr	r2, [r2, #0]
 80018e4:	6801      	ldr	r1, [r0, #0]
 80018e6:	b2db      	uxtb	r3, r3
 80018e8:	f1c3 0308 	rsb	r3, r3, #8
 80018ec:	f3c2 2202 	ubfx	r2, r2, #8, #3
 80018f0:	4293      	cmp	r3, r2
 80018f2:	bf98      	it	ls
 80018f4:	1c53      	addls	r3, r2, #1
 80018f6:	f06f 7280 	mvn.w	r2, #16777216	; 0x1000000
 80018fa:	fa02 f303 	lsl.w	r3, r2, r3
 80018fe:	f003 437f 	and.w	r3, r3, #4278190080	; 0xff000000
 8001902:	f021 427f 	bic.w	r2, r1, #4278190080	; 0xff000000
 8001906:	4313      	orrs	r3, r2
 8001908:	6003      	str	r3, [r0, #0]
 800190a:	f7ff f811 	bl	8000930 <os_tick_init>
 800190e:	4b0f      	ldr	r3, [pc, #60]	; (800194c <rt_sys_start+0x88>)
 8001910:	2800      	cmp	r0, #0
 8001912:	6018      	str	r0, [r3, #0]
 8001914:	db12      	blt.n	800193c <rt_sys_start+0x78>
 8001916:	f100 4060 	add.w	r0, r0, #3758096384	; 0xe0000000
 800191a:	f500 4064 	add.w	r0, r0, #58368	; 0xe400
 800191e:	22ff      	movs	r2, #255	; 0xff
 8001920:	7002      	strb	r2, [r0, #0]
 8001922:	681a      	ldr	r2, [r3, #0]
 8001924:	0953      	lsrs	r3, r2, #5
 8001926:	009b      	lsls	r3, r3, #2
 8001928:	f103 4360 	add.w	r3, r3, #3758096384	; 0xe0000000
 800192c:	f503 4361 	add.w	r3, r3, #57600	; 0xe100
 8001930:	f002 021f 	and.w	r2, r2, #31
 8001934:	2101      	movs	r1, #1
 8001936:	fa01 f202 	lsl.w	r2, r1, r2
 800193a:	601a      	str	r2, [r3, #0]
 800193c:	bd08      	pop	{r3, pc}
 800193e:	bf00      	nop
 8001940:	e000ed20 	.word	0xe000ed20
 8001944:	e000ed0c 	.word	0xe000ed0c
 8001948:	e000ed1c 	.word	0xe000ed1c
 800194c:	200019b8 	.word	0x200019b8

08001950 <rt_mut_init>:
 8001950:	2303      	movs	r3, #3
 8001952:	7003      	strb	r3, [r0, #0]
 8001954:	2300      	movs	r3, #0
 8001956:	8043      	strh	r3, [r0, #2]
 8001958:	6043      	str	r3, [r0, #4]
 800195a:	6083      	str	r3, [r0, #8]
 800195c:	60c3      	str	r3, [r0, #12]
 800195e:	4770      	bx	lr

08001960 <rt_mut_delete>:
 8001960:	b5f8      	push	{r3, r4, r5, r6, r7, lr}
 8001962:	8843      	ldrh	r3, [r0, #2]
 8001964:	4604      	mov	r4, r0
 8001966:	b19b      	cbz	r3, 8001990 <rt_mut_delete+0x30>
 8001968:	6880      	ldr	r0, [r0, #8]
 800196a:	6a03      	ldr	r3, [r0, #32]
 800196c:	429c      	cmp	r4, r3
 800196e:	d128      	bne.n	80019c2 <rt_mut_delete+0x62>
 8001970:	68e3      	ldr	r3, [r4, #12]
 8001972:	6203      	str	r3, [r0, #32]
 8001974:	f890 3024 	ldrb.w	r3, [r0, #36]	; 0x24
 8001978:	6a02      	ldr	r2, [r0, #32]
 800197a:	bb52      	cbnz	r2, 80019d2 <rt_mut_delete+0x72>
 800197c:	7882      	ldrb	r2, [r0, #2]
 800197e:	429a      	cmp	r2, r3
 8001980:	d006      	beq.n	8001990 <rt_mut_delete+0x30>
 8001982:	7083      	strb	r3, [r0, #2]
 8001984:	4b1f      	ldr	r3, [pc, #124]	; (8001a04 <rt_mut_delete+0xa4>)
 8001986:	681b      	ldr	r3, [r3, #0]
 8001988:	4298      	cmp	r0, r3
 800198a:	d001      	beq.n	8001990 <rt_mut_delete+0x30>
 800198c:	f7fe ff30 	bl	80007f0 <rt_resort_prio>
 8001990:	4f1d      	ldr	r7, [pc, #116]	; (8001a08 <rt_mut_delete+0xa8>)
 8001992:	2601      	movs	r6, #1
 8001994:	6865      	ldr	r5, [r4, #4]
 8001996:	bb25      	cbnz	r5, 80019e2 <rt_mut_delete+0x82>
 8001998:	481b      	ldr	r0, [pc, #108]	; (8001a08 <rt_mut_delete+0xa8>)
 800199a:	6843      	ldr	r3, [r0, #4]
 800199c:	b16b      	cbz	r3, 80019ba <rt_mut_delete+0x5a>
 800199e:	4e19      	ldr	r6, [pc, #100]	; (8001a04 <rt_mut_delete+0xa4>)
 80019a0:	789a      	ldrb	r2, [r3, #2]
 80019a2:	6831      	ldr	r1, [r6, #0]
 80019a4:	788b      	ldrb	r3, [r1, #2]
 80019a6:	429a      	cmp	r2, r3
 80019a8:	d907      	bls.n	80019ba <rt_mut_delete+0x5a>
 80019aa:	f7fe fe7b 	bl	80006a4 <rt_put_prio>
 80019ae:	6833      	ldr	r3, [r6, #0]
 80019b0:	2201      	movs	r2, #1
 80019b2:	705a      	strb	r2, [r3, #1]
 80019b4:	4628      	mov	r0, r5
 80019b6:	f7ff fd87 	bl	80014c8 <rt_dispatch>
 80019ba:	2000      	movs	r0, #0
 80019bc:	7020      	strb	r0, [r4, #0]
 80019be:	bdf8      	pop	{r3, r4, r5, r6, r7, pc}
 80019c0:	4613      	mov	r3, r2
 80019c2:	2b00      	cmp	r3, #0
 80019c4:	d0d6      	beq.n	8001974 <rt_mut_delete+0x14>
 80019c6:	68da      	ldr	r2, [r3, #12]
 80019c8:	4294      	cmp	r4, r2
 80019ca:	d1f9      	bne.n	80019c0 <rt_mut_delete+0x60>
 80019cc:	68e2      	ldr	r2, [r4, #12]
 80019ce:	60da      	str	r2, [r3, #12]
 80019d0:	e7d0      	b.n	8001974 <rt_mut_delete+0x14>
 80019d2:	6851      	ldr	r1, [r2, #4]
 80019d4:	b119      	cbz	r1, 80019de <rt_mut_delete+0x7e>
 80019d6:	7889      	ldrb	r1, [r1, #2]
 80019d8:	428b      	cmp	r3, r1
 80019da:	bf38      	it	cc
 80019dc:	460b      	movcc	r3, r1
 80019de:	68d2      	ldr	r2, [r2, #12]
 80019e0:	e7cb      	b.n	800197a <rt_mut_delete+0x1a>
 80019e2:	4620      	mov	r0, r4
 80019e4:	f7fe fe76 	bl	80006d4 <rt_get_first>
 80019e8:	2100      	movs	r1, #0
 80019ea:	4605      	mov	r5, r0
 80019ec:	f7ff f836 	bl	8000a5c <rt_ret_val>
 80019f0:	4628      	mov	r0, r5
 80019f2:	f7fe ff15 	bl	8000820 <rt_rmv_dly>
 80019f6:	706e      	strb	r6, [r5, #1]
 80019f8:	4629      	mov	r1, r5
 80019fa:	4638      	mov	r0, r7
 80019fc:	f7fe fe52 	bl	80006a4 <rt_put_prio>
 8001a00:	e7c8      	b.n	8001994 <rt_mut_delete+0x34>
 8001a02:	bf00      	nop
 8001a04:	200019d4 	.word	0x200019d4
 8001a08:	20001988 	.word	0x20001988

08001a0c <rt_mut_release>:
 8001a0c:	e92d 43f8 	stmdb	sp!, {r3, r4, r5, r6, r7, r8, r9, lr}
 8001a10:	8843      	ldrh	r3, [r0, #2]
 8001a12:	4605      	mov	r5, r0
 8001a14:	2b00      	cmp	r3, #0
 8001a16:	d063      	beq.n	8001ae0 <rt_mut_release+0xd4>
 8001a18:	4f32      	ldr	r7, [pc, #200]	; (8001ae4 <rt_mut_release+0xd8>)
 8001a1a:	6881      	ldr	r1, [r0, #8]
 8001a1c:	683a      	ldr	r2, [r7, #0]
 8001a1e:	4291      	cmp	r1, r2
 8001a20:	d15e      	bne.n	8001ae0 <rt_mut_release+0xd4>
 8001a22:	3b01      	subs	r3, #1
 8001a24:	b29b      	uxth	r3, r3
 8001a26:	8043      	strh	r3, [r0, #2]
 8001a28:	b11b      	cbz	r3, 8001a32 <rt_mut_release+0x26>
 8001a2a:	2400      	movs	r4, #0
 8001a2c:	4620      	mov	r0, r4
 8001a2e:	e8bd 83f8 	ldmia.w	sp!, {r3, r4, r5, r6, r7, r8, r9, pc}
 8001a32:	6a0b      	ldr	r3, [r1, #32]
 8001a34:	4298      	cmp	r0, r3
 8001a36:	d129      	bne.n	8001a8c <rt_mut_release+0x80>
 8001a38:	68c3      	ldr	r3, [r0, #12]
 8001a3a:	620b      	str	r3, [r1, #32]
 8001a3c:	f891 3024 	ldrb.w	r3, [r1, #36]	; 0x24
 8001a40:	6a0c      	ldr	r4, [r1, #32]
 8001a42:	bb5c      	cbnz	r4, 8001a9c <rt_mut_release+0x90>
 8001a44:	708b      	strb	r3, [r1, #2]
 8001a46:	686a      	ldr	r2, [r5, #4]
 8001a48:	f8df 809c 	ldr.w	r8, [pc, #156]	; 8001ae8 <rt_mut_release+0xdc>
 8001a4c:	2a00      	cmp	r2, #0
 8001a4e:	d03b      	beq.n	8001ac8 <rt_mut_release+0xbc>
 8001a50:	4628      	mov	r0, r5
 8001a52:	f7fe fe3f 	bl	80006d4 <rt_get_first>
 8001a56:	4621      	mov	r1, r4
 8001a58:	4606      	mov	r6, r0
 8001a5a:	f7fe ffff 	bl	8000a5c <rt_ret_val>
 8001a5e:	4630      	mov	r0, r6
 8001a60:	f7fe fede 	bl	8000820 <rt_rmv_dly>
 8001a64:	6a33      	ldr	r3, [r6, #32]
 8001a66:	60eb      	str	r3, [r5, #12]
 8001a68:	f04f 0901 	mov.w	r9, #1
 8001a6c:	6839      	ldr	r1, [r7, #0]
 8001a6e:	f8d8 3004 	ldr.w	r3, [r8, #4]
 8001a72:	f8a5 9002 	strh.w	r9, [r5, #2]
 8001a76:	60ae      	str	r6, [r5, #8]
 8001a78:	6235      	str	r5, [r6, #32]
 8001a7a:	788a      	ldrb	r2, [r1, #2]
 8001a7c:	789b      	ldrb	r3, [r3, #2]
 8001a7e:	429a      	cmp	r2, r3
 8001a80:	d314      	bcc.n	8001aac <rt_mut_release+0xa0>
 8001a82:	4630      	mov	r0, r6
 8001a84:	f7ff fd20 	bl	80014c8 <rt_dispatch>
 8001a88:	e7d0      	b.n	8001a2c <rt_mut_release+0x20>
 8001a8a:	4613      	mov	r3, r2
 8001a8c:	2b00      	cmp	r3, #0
 8001a8e:	d0d5      	beq.n	8001a3c <rt_mut_release+0x30>
 8001a90:	68da      	ldr	r2, [r3, #12]
 8001a92:	4295      	cmp	r5, r2
 8001a94:	d1f9      	bne.n	8001a8a <rt_mut_release+0x7e>
 8001a96:	68ea      	ldr	r2, [r5, #12]
 8001a98:	60da      	str	r2, [r3, #12]
 8001a9a:	e7cf      	b.n	8001a3c <rt_mut_release+0x30>
 8001a9c:	6862      	ldr	r2, [r4, #4]
 8001a9e:	b11a      	cbz	r2, 8001aa8 <rt_mut_release+0x9c>
 8001aa0:	7892      	ldrb	r2, [r2, #2]
 8001aa2:	4293      	cmp	r3, r2
 8001aa4:	bf38      	it	cc
 8001aa6:	4613      	movcc	r3, r2
 8001aa8:	68e4      	ldr	r4, [r4, #12]
 8001aaa:	e7ca      	b.n	8001a42 <rt_mut_release+0x36>
 8001aac:	4640      	mov	r0, r8
 8001aae:	f7fe fdf9 	bl	80006a4 <rt_put_prio>
 8001ab2:	4631      	mov	r1, r6
 8001ab4:	4640      	mov	r0, r8
 8001ab6:	f7fe fdf5 	bl	80006a4 <rt_put_prio>
 8001aba:	683b      	ldr	r3, [r7, #0]
 8001abc:	f883 9001 	strb.w	r9, [r3, #1]
 8001ac0:	f886 9001 	strb.w	r9, [r6, #1]
 8001ac4:	4620      	mov	r0, r4
 8001ac6:	e7dd      	b.n	8001a84 <rt_mut_release+0x78>
 8001ac8:	f8d8 2004 	ldr.w	r2, [r8, #4]
 8001acc:	7892      	ldrb	r2, [r2, #2]
 8001ace:	429a      	cmp	r2, r3
 8001ad0:	d9ab      	bls.n	8001a2a <rt_mut_release+0x1e>
 8001ad2:	4640      	mov	r0, r8
 8001ad4:	f7fe fde6 	bl	80006a4 <rt_put_prio>
 8001ad8:	683b      	ldr	r3, [r7, #0]
 8001ada:	2201      	movs	r2, #1
 8001adc:	705a      	strb	r2, [r3, #1]
 8001ade:	e7f1      	b.n	8001ac4 <rt_mut_release+0xb8>
 8001ae0:	24ff      	movs	r4, #255	; 0xff
 8001ae2:	e7a3      	b.n	8001a2c <rt_mut_release+0x20>
 8001ae4:	200019d4 	.word	0x200019d4
 8001ae8:	20001988 	.word	0x20001988

08001aec <rt_mut_wait>:
 8001aec:	8843      	ldrh	r3, [r0, #2]
 8001aee:	b570      	push	{r4, r5, r6, lr}
 8001af0:	4604      	mov	r4, r0
 8001af2:	460e      	mov	r6, r1
 8001af4:	4d13      	ldr	r5, [pc, #76]	; (8001b44 <rt_mut_wait+0x58>)
 8001af6:	b943      	cbnz	r3, 8001b0a <rt_mut_wait+0x1e>
 8001af8:	682a      	ldr	r2, [r5, #0]
 8001afa:	6082      	str	r2, [r0, #8]
 8001afc:	6a11      	ldr	r1, [r2, #32]
 8001afe:	60c1      	str	r1, [r0, #12]
 8001b00:	6210      	str	r0, [r2, #32]
 8001b02:	3301      	adds	r3, #1
 8001b04:	8063      	strh	r3, [r4, #2]
 8001b06:	2000      	movs	r0, #0
 8001b08:	bd70      	pop	{r4, r5, r6, pc}
 8001b0a:	6880      	ldr	r0, [r0, #8]
 8001b0c:	682a      	ldr	r2, [r5, #0]
 8001b0e:	4290      	cmp	r0, r2
 8001b10:	d0f7      	beq.n	8001b02 <rt_mut_wait+0x16>
 8001b12:	b181      	cbz	r1, 8001b36 <rt_mut_wait+0x4a>
 8001b14:	7893      	ldrb	r3, [r2, #2]
 8001b16:	7882      	ldrb	r2, [r0, #2]
 8001b18:	429a      	cmp	r2, r3
 8001b1a:	d202      	bcs.n	8001b22 <rt_mut_wait+0x36>
 8001b1c:	7083      	strb	r3, [r0, #2]
 8001b1e:	f7fe fe67 	bl	80007f0 <rt_resort_prio>
 8001b22:	6862      	ldr	r2, [r4, #4]
 8001b24:	b14a      	cbz	r2, 8001b3a <rt_mut_wait+0x4e>
 8001b26:	6829      	ldr	r1, [r5, #0]
 8001b28:	4620      	mov	r0, r4
 8001b2a:	f7fe fdbb 	bl	80006a4 <rt_put_prio>
 8001b2e:	2109      	movs	r1, #9
 8001b30:	4630      	mov	r0, r6
 8001b32:	f7ff fced 	bl	8001510 <rt_block>
 8001b36:	2001      	movs	r0, #1
 8001b38:	bd70      	pop	{r4, r5, r6, pc}
 8001b3a:	682b      	ldr	r3, [r5, #0]
 8001b3c:	6063      	str	r3, [r4, #4]
 8001b3e:	605a      	str	r2, [r3, #4]
 8001b40:	609c      	str	r4, [r3, #8]
 8001b42:	e7f4      	b.n	8001b2e <rt_mut_wait+0x42>
 8001b44:	200019d4 	.word	0x200019d4

08001b48 <rt_dly_wait>:
 8001b48:	2103      	movs	r1, #3
 8001b4a:	f7ff bce1 	b.w	8001510 <rt_block>
	...

08001b50 <rt_sem_psh>:
 8001b50:	6842      	ldr	r2, [r0, #4]
 8001b52:	b510      	push	{r4, lr}
 8001b54:	b17a      	cbz	r2, 8001b76 <rt_sem_psh+0x26>
 8001b56:	f7fe fdbd 	bl	80006d4 <rt_get_first>
 8001b5a:	4604      	mov	r4, r0
 8001b5c:	f7fe fe60 	bl	8000820 <rt_rmv_dly>
 8001b60:	2101      	movs	r1, #1
 8001b62:	7061      	strb	r1, [r4, #1]
 8001b64:	4620      	mov	r0, r4
 8001b66:	f7fe ff79 	bl	8000a5c <rt_ret_val>
 8001b6a:	4621      	mov	r1, r4
 8001b6c:	4804      	ldr	r0, [pc, #16]	; (8001b80 <rt_sem_psh+0x30>)
 8001b6e:	e8bd 4010 	ldmia.w	sp!, {r4, lr}
 8001b72:	f7fe bd97 	b.w	80006a4 <rt_put_prio>
 8001b76:	8842      	ldrh	r2, [r0, #2]
 8001b78:	3201      	adds	r2, #1
 8001b7a:	8042      	strh	r2, [r0, #2]
 8001b7c:	bd10      	pop	{r4, pc}
 8001b7e:	bf00      	nop
 8001b80:	20001988 	.word	0x20001988

08001b84 <timer_irq_handler>:
 8001b84:	b570      	push	{r4, r5, r6, lr}
 8001b86:	4c13      	ldr	r4, [pc, #76]	; (8001bd4 <timer_irq_handler+0x50>)
 8001b88:	6823      	ldr	r3, [r4, #0]
 8001b8a:	691a      	ldr	r2, [r3, #16]
 8001b8c:	0795      	lsls	r5, r2, #30
 8001b8e:	d507      	bpl.n	8001ba0 <timer_irq_handler+0x1c>
 8001b90:	68da      	ldr	r2, [r3, #12]
 8001b92:	0790      	lsls	r0, r2, #30
 8001b94:	d504      	bpl.n	8001ba0 <timer_irq_handler+0x1c>
 8001b96:	f06f 0202 	mvn.w	r2, #2
 8001b9a:	611a      	str	r2, [r3, #16]
 8001b9c:	f7fe fc62 	bl	8000464 <us_ticker_irq_handler>
 8001ba0:	6823      	ldr	r3, [r4, #0]
 8001ba2:	691a      	ldr	r2, [r3, #16]
 8001ba4:	0751      	lsls	r1, r2, #29
 8001ba6:	d513      	bpl.n	8001bd0 <timer_irq_handler+0x4c>
 8001ba8:	68da      	ldr	r2, [r3, #12]
 8001baa:	0752      	lsls	r2, r2, #29
 8001bac:	d510      	bpl.n	8001bd0 <timer_irq_handler+0x4c>
 8001bae:	f06f 0204 	mvn.w	r2, #4
 8001bb2:	4e09      	ldr	r6, [pc, #36]	; (8001bd8 <timer_irq_handler+0x54>)
 8001bb4:	611a      	str	r2, [r3, #16]
 8001bb6:	6a5d      	ldr	r5, [r3, #36]	; 0x24
 8001bb8:	6833      	ldr	r3, [r6, #0]
 8001bba:	1aeb      	subs	r3, r5, r3
 8001bbc:	f5b3 7f7a 	cmp.w	r3, #1000	; 0x3e8
 8001bc0:	d306      	bcc.n	8001bd0 <timer_irq_handler+0x4c>
 8001bc2:	f001 faad 	bl	8003120 <HAL_IncTick>
 8001bc6:	6823      	ldr	r3, [r4, #0]
 8001bc8:	f505 727a 	add.w	r2, r5, #1000	; 0x3e8
 8001bcc:	639a      	str	r2, [r3, #56]	; 0x38
 8001bce:	6035      	str	r5, [r6, #0]
 8001bd0:	bd70      	pop	{r4, r5, r6, pc}
 8001bd2:	bf00      	nop
 8001bd4:	20001a20 	.word	0x20001a20
 8001bd8:	20000d8c 	.word	0x20000d8c

08001bdc <HAL_InitTick>:
 8001bdc:	b530      	push	{r4, r5, lr}
 8001bde:	b089      	sub	sp, #36	; 0x24
 8001be0:	a901      	add	r1, sp, #4
 8001be2:	a803      	add	r0, sp, #12
 8001be4:	f001 fa6a 	bl	80030bc <HAL_RCC_GetClockConfig>
 8001be8:	f001 fa38 	bl	800305c <HAL_RCC_GetPCLK1Freq>
 8001bec:	4b24      	ldr	r3, [pc, #144]	; (8001c80 <HAL_InitTick+0xa4>)
 8001bee:	9001      	str	r0, [sp, #4]
 8001bf0:	69da      	ldr	r2, [r3, #28]
 8001bf2:	4c24      	ldr	r4, [pc, #144]	; (8001c84 <HAL_InitTick+0xa8>)
 8001bf4:	f042 0201 	orr.w	r2, r2, #1
 8001bf8:	61da      	str	r2, [r3, #28]
 8001bfa:	69da      	ldr	r2, [r3, #28]
 8001bfc:	f002 0201 	and.w	r2, r2, #1
 8001c00:	9202      	str	r2, [sp, #8]
 8001c02:	9a02      	ldr	r2, [sp, #8]
 8001c04:	691a      	ldr	r2, [r3, #16]
 8001c06:	f042 0201 	orr.w	r2, r2, #1
 8001c0a:	611a      	str	r2, [r3, #16]
 8001c0c:	691a      	ldr	r2, [r3, #16]
 8001c0e:	f022 0201 	bic.w	r2, r2, #1
 8001c12:	611a      	str	r2, [r3, #16]
 8001c14:	9a06      	ldr	r2, [sp, #24]
 8001c16:	f04f 4380 	mov.w	r3, #1073741824	; 0x40000000
 8001c1a:	6023      	str	r3, [r4, #0]
 8001c1c:	f04f 33ff 	mov.w	r3, #4294967295	; 0xffffffff
 8001c20:	60e3      	str	r3, [r4, #12]
 8001c22:	4b19      	ldr	r3, [pc, #100]	; (8001c88 <HAL_InitTick+0xac>)
 8001c24:	bb4a      	cbnz	r2, 8001c7a <HAL_InitTick+0x9e>
 8001c26:	fbb0 f0f3 	udiv	r0, r0, r3
 8001c2a:	3801      	subs	r0, #1
 8001c2c:	2500      	movs	r5, #0
 8001c2e:	6060      	str	r0, [r4, #4]
 8001c30:	4814      	ldr	r0, [pc, #80]	; (8001c84 <HAL_InitTick+0xa8>)
 8001c32:	6125      	str	r5, [r4, #16]
 8001c34:	60a5      	str	r5, [r4, #8]
 8001c36:	6165      	str	r5, [r4, #20]
 8001c38:	f001 fbd4 	bl	80033e4 <HAL_TIM_OC_Init>
 8001c3c:	4913      	ldr	r1, [pc, #76]	; (8001c8c <HAL_InitTick+0xb0>)
 8001c3e:	201c      	movs	r0, #28
 8001c40:	f000 fe76 	bl	8002930 <__NVIC_SetVector>
 8001c44:	4b12      	ldr	r3, [pc, #72]	; (8001c90 <HAL_InitTick+0xb4>)
 8001c46:	480f      	ldr	r0, [pc, #60]	; (8001c84 <HAL_InitTick+0xa8>)
 8001c48:	f04f 5280 	mov.w	r2, #268435456	; 0x10000000
 8001c4c:	601a      	str	r2, [r3, #0]
 8001c4e:	4629      	mov	r1, r5
 8001c50:	f001 fc10 	bl	8003474 <HAL_TIM_OC_Start>
 8001c54:	2104      	movs	r1, #4
 8001c56:	480b      	ldr	r0, [pc, #44]	; (8001c84 <HAL_InitTick+0xa8>)
 8001c58:	f001 fc0c 	bl	8003474 <HAL_TIM_OC_Start>
 8001c5c:	6823      	ldr	r3, [r4, #0]
 8001c5e:	4a0d      	ldr	r2, [pc, #52]	; (8001c94 <HAL_InitTick+0xb8>)
 8001c60:	6a59      	ldr	r1, [r3, #36]	; 0x24
 8001c62:	6011      	str	r1, [r2, #0]
 8001c64:	6812      	ldr	r2, [r2, #0]
 8001c66:	f502 727a 	add.w	r2, r2, #1000	; 0x3e8
 8001c6a:	639a      	str	r2, [r3, #56]	; 0x38
 8001c6c:	68da      	ldr	r2, [r3, #12]
 8001c6e:	4628      	mov	r0, r5
 8001c70:	f042 0204 	orr.w	r2, r2, #4
 8001c74:	60da      	str	r2, [r3, #12]
 8001c76:	b009      	add	sp, #36	; 0x24
 8001c78:	bd30      	pop	{r4, r5, pc}
 8001c7a:	0040      	lsls	r0, r0, #1
 8001c7c:	e7d3      	b.n	8001c26 <HAL_InitTick+0x4a>
 8001c7e:	bf00      	nop
 8001c80:	40021000 	.word	0x40021000
 8001c84:	20001a20 	.word	0x20001a20
 8001c88:	000f4240 	.word	0x000f4240
 8001c8c:	08001b85 	.word	0x08001b85
 8001c90:	e000e100 	.word	0xe000e100
 8001c94:	20000d8c 	.word	0x20000d8c

08001c98 <HAL_SuspendTick>:
 8001c98:	f04f 4380 	mov.w	r3, #1073741824	; 0x40000000
 8001c9c:	4a03      	ldr	r2, [pc, #12]	; (8001cac <HAL_SuspendTick+0x14>)
 8001c9e:	6013      	str	r3, [r2, #0]
 8001ca0:	68da      	ldr	r2, [r3, #12]
 8001ca2:	f022 0204 	bic.w	r2, r2, #4
 8001ca6:	60da      	str	r2, [r3, #12]
 8001ca8:	4770      	bx	lr
 8001caa:	bf00      	nop
 8001cac:	20001a20 	.word	0x20001a20

08001cb0 <HAL_ResumeTick>:
 8001cb0:	f04f 4380 	mov.w	r3, #1073741824	; 0x40000000
 8001cb4:	4a03      	ldr	r2, [pc, #12]	; (8001cc4 <HAL_ResumeTick+0x14>)
 8001cb6:	6013      	str	r3, [r2, #0]
 8001cb8:	68da      	ldr	r2, [r3, #12]
 8001cba:	f042 0204 	orr.w	r2, r2, #4
 8001cbe:	60da      	str	r2, [r3, #12]
 8001cc0:	4770      	bx	lr
 8001cc2:	bf00      	nop
 8001cc4:	20001a20 	.word	0x20001a20

08001cc8 <Set_GPIO_Clock>:
 8001cc8:	b57f      	push	{r0, r1, r2, r3, r4, r5, r6, lr}
 8001cca:	2805      	cmp	r0, #5
 8001ccc:	d843      	bhi.n	8001d56 <Set_GPIO_Clock+0x8e>
 8001cce:	e8df f000 	tbb	[pc, r0]
 8001cd2:	1203      	.short	0x1203
 8001cd4:	36422a1e 	.word	0x36422a1e
 8001cd8:	4b21      	ldr	r3, [pc, #132]	; (8001d60 <Set_GPIO_Clock+0x98>)
 8001cda:	695a      	ldr	r2, [r3, #20]
 8001cdc:	f442 3200 	orr.w	r2, r2, #131072	; 0x20000
 8001ce0:	615a      	str	r2, [r3, #20]
 8001ce2:	695b      	ldr	r3, [r3, #20]
 8001ce4:	f403 3300 	and.w	r3, r3, #131072	; 0x20000
 8001ce8:	9301      	str	r3, [sp, #4]
 8001cea:	9b01      	ldr	r3, [sp, #4]
 8001cec:	f04f 4090 	mov.w	r0, #1207959552	; 0x48000000
 8001cf0:	b007      	add	sp, #28
 8001cf2:	f85d fb04 	ldr.w	pc, [sp], #4
 8001cf6:	4b1a      	ldr	r3, [pc, #104]	; (8001d60 <Set_GPIO_Clock+0x98>)
 8001cf8:	481a      	ldr	r0, [pc, #104]	; (8001d64 <Set_GPIO_Clock+0x9c>)
 8001cfa:	695a      	ldr	r2, [r3, #20]
 8001cfc:	f442 2280 	orr.w	r2, r2, #262144	; 0x40000
 8001d00:	615a      	str	r2, [r3, #20]
 8001d02:	695b      	ldr	r3, [r3, #20]
 8001d04:	f403 2380 	and.w	r3, r3, #262144	; 0x40000
 8001d08:	9302      	str	r3, [sp, #8]
 8001d0a:	9b02      	ldr	r3, [sp, #8]
 8001d0c:	e7f0      	b.n	8001cf0 <Set_GPIO_Clock+0x28>
 8001d0e:	4b14      	ldr	r3, [pc, #80]	; (8001d60 <Set_GPIO_Clock+0x98>)
 8001d10:	4815      	ldr	r0, [pc, #84]	; (8001d68 <Set_GPIO_Clock+0xa0>)
 8001d12:	695a      	ldr	r2, [r3, #20]
 8001d14:	f442 2200 	orr.w	r2, r2, #524288	; 0x80000
 8001d18:	615a      	str	r2, [r3, #20]
 8001d1a:	695b      	ldr	r3, [r3, #20]
 8001d1c:	f403 2300 	and.w	r3, r3, #524288	; 0x80000
 8001d20:	9303      	str	r3, [sp, #12]
 8001d22:	9b03      	ldr	r3, [sp, #12]
 8001d24:	e7e4      	b.n	8001cf0 <Set_GPIO_Clock+0x28>
 8001d26:	4b0e      	ldr	r3, [pc, #56]	; (8001d60 <Set_GPIO_Clock+0x98>)
 8001d28:	4810      	ldr	r0, [pc, #64]	; (8001d6c <Set_GPIO_Clock+0xa4>)
 8001d2a:	695a      	ldr	r2, [r3, #20]
 8001d2c:	f442 1280 	orr.w	r2, r2, #1048576	; 0x100000
 8001d30:	615a      	str	r2, [r3, #20]
 8001d32:	695b      	ldr	r3, [r3, #20]
 8001d34:	f403 1380 	and.w	r3, r3, #1048576	; 0x100000
 8001d38:	9304      	str	r3, [sp, #16]
 8001d3a:	9b04      	ldr	r3, [sp, #16]
 8001d3c:	e7d8      	b.n	8001cf0 <Set_GPIO_Clock+0x28>
 8001d3e:	4b08      	ldr	r3, [pc, #32]	; (8001d60 <Set_GPIO_Clock+0x98>)
 8001d40:	480b      	ldr	r0, [pc, #44]	; (8001d70 <Set_GPIO_Clock+0xa8>)
 8001d42:	695a      	ldr	r2, [r3, #20]
 8001d44:	f442 0280 	orr.w	r2, r2, #4194304	; 0x400000
 8001d48:	615a      	str	r2, [r3, #20]
 8001d4a:	695b      	ldr	r3, [r3, #20]
 8001d4c:	f403 0380 	and.w	r3, r3, #4194304	; 0x400000
 8001d50:	9305      	str	r3, [sp, #20]
 8001d52:	9b05      	ldr	r3, [sp, #20]
 8001d54:	e7cc      	b.n	8001cf0 <Set_GPIO_Clock+0x28>
 8001d56:	4807      	ldr	r0, [pc, #28]	; (8001d74 <Set_GPIO_Clock+0xac>)
 8001d58:	f7fe fc16 	bl	8000588 <error>
 8001d5c:	2000      	movs	r0, #0
 8001d5e:	e7c7      	b.n	8001cf0 <Set_GPIO_Clock+0x28>
 8001d60:	40021000 	.word	0x40021000
 8001d64:	48000400 	.word	0x48000400
 8001d68:	48000800 	.word	0x48000800
 8001d6c:	48000c00 	.word	0x48000c00
 8001d70:	48001400 	.word	0x48001400
 8001d74:	0800641c 	.word	0x0800641c

08001d78 <gpio_set>:
 8001d78:	b510      	push	{r4, lr}
 8001d7a:	2100      	movs	r1, #0
 8001d7c:	4604      	mov	r4, r0
 8001d7e:	f004 040f 	and.w	r4, r4, #15
 8001d82:	f000 fb33 	bl	80023ec <pin_function>
 8001d86:	2001      	movs	r0, #1
 8001d88:	40a0      	lsls	r0, r4
 8001d8a:	bd10      	pop	{r4, pc}

08001d8c <gpio_init>:
 8001d8c:	b570      	push	{r4, r5, r6, lr}
 8001d8e:	4604      	mov	r4, r0
 8001d90:	1c4b      	adds	r3, r1, #1
 8001d92:	460e      	mov	r6, r1
 8001d94:	8221      	strh	r1, [r4, #16]
 8001d96:	d018      	beq.n	8001dca <gpio_init+0x3e>
 8001d98:	f3c1 1003 	ubfx	r0, r1, #4, #4
 8001d9c:	f7ff ff94 	bl	8001cc8 <Set_GPIO_Clock>
 8001da0:	4605      	mov	r5, r0
 8001da2:	4630      	mov	r0, r6
 8001da4:	f7ff ffe8 	bl	8001d78 <gpio_set>
 8001da8:	8a23      	ldrh	r3, [r4, #16]
 8001daa:	4a08      	ldr	r2, [pc, #32]	; (8001dcc <gpio_init+0x40>)
 8001dac:	6165      	str	r5, [r4, #20]
 8001dae:	f003 030f 	and.w	r3, r3, #15
 8001db2:	6020      	str	r0, [r4, #0]
 8001db4:	f852 3023 	ldr.w	r3, [r2, r3, lsl #2]
 8001db8:	61a3      	str	r3, [r4, #24]
 8001dba:	f105 0310 	add.w	r3, r5, #16
 8001dbe:	6063      	str	r3, [r4, #4]
 8001dc0:	f105 0318 	add.w	r3, r5, #24
 8001dc4:	3528      	adds	r5, #40	; 0x28
 8001dc6:	60a3      	str	r3, [r4, #8]
 8001dc8:	60e5      	str	r5, [r4, #12]
 8001dca:	bd70      	pop	{r4, r5, r6, pc}
 8001dcc:	0800650c 	.word	0x0800650c

08001dd0 <gpio_mode>:
 8001dd0:	f9b0 0010 	ldrsh.w	r0, [r0, #16]
 8001dd4:	f000 bb8c 	b.w	80024f0 <pin_mode>

08001dd8 <gpio_dir>:
 8001dd8:	b510      	push	{r4, lr}
 8001dda:	6983      	ldr	r3, [r0, #24]
 8001ddc:	6944      	ldr	r4, [r0, #20]
 8001dde:	b971      	cbnz	r1, 8001dfe <gpio_dir+0x26>
 8001de0:	6821      	ldr	r1, [r4, #0]
 8001de2:	fa93 f2a3 	rbit	r2, r3
 8001de6:	fab2 f282 	clz	r2, r2
 8001dea:	2003      	movs	r0, #3
 8001dec:	0052      	lsls	r2, r2, #1
 8001dee:	fa00 f202 	lsl.w	r2, r0, r2
 8001df2:	ea21 0202 	bic.w	r2, r1, r2
 8001df6:	fa93 f3a3 	rbit	r3, r3
 8001dfa:	6022      	str	r2, [r4, #0]
 8001dfc:	bd10      	pop	{r4, pc}
 8001dfe:	6822      	ldr	r2, [r4, #0]
 8001e00:	fa93 f1a3 	rbit	r1, r3
 8001e04:	fab1 f181 	clz	r1, r1
 8001e08:	fa93 f3a3 	rbit	r3, r3
 8001e0c:	2003      	movs	r0, #3
 8001e0e:	0049      	lsls	r1, r1, #1
 8001e10:	fa00 f101 	lsl.w	r1, r0, r1
 8001e14:	fab3 f383 	clz	r3, r3
 8001e18:	ea22 0201 	bic.w	r2, r2, r1
 8001e1c:	005b      	lsls	r3, r3, #1
 8001e1e:	2101      	movs	r1, #1
 8001e20:	fa01 f303 	lsl.w	r3, r1, r3
 8001e24:	4313      	orrs	r3, r2
 8001e26:	6023      	str	r3, [r4, #0]
 8001e28:	bd10      	pop	{r4, pc}

08001e2a <hal_sleep>:
 8001e2a:	b508      	push	{r3, lr}
 8001e2c:	f7ff ff34 	bl	8001c98 <HAL_SuspendTick>
 8001e30:	2101      	movs	r1, #1
 8001e32:	2000      	movs	r0, #0
 8001e34:	f000 fd9c 	bl	8002970 <HAL_PWR_EnterSLEEPMode>
 8001e38:	e8bd 4008 	ldmia.w	sp!, {r3, lr}
 8001e3c:	f7ff bf38 	b.w	8001cb0 <HAL_ResumeTick>

08001e40 <CAN_SCE_IRQHandler>:
 8001e40:	4b38      	ldr	r3, [pc, #224]	; (8001f24 <CAN_SCE_IRQHandler+0xe4>)
 8001e42:	695a      	ldr	r2, [r3, #20]
 8001e44:	e92d 41f0 	stmdb	sp!, {r4, r5, r6, r7, r8, lr}
 8001e48:	4c37      	ldr	r4, [pc, #220]	; (8001f28 <CAN_SCE_IRQHandler+0xe8>)
 8001e4a:	07d2      	lsls	r2, r2, #31
 8001e4c:	6023      	str	r3, [r4, #0]
 8001e4e:	d52a      	bpl.n	8001ea6 <CAN_SCE_IRQHandler+0x66>
 8001e50:	6898      	ldr	r0, [r3, #8]
 8001e52:	4f36      	ldr	r7, [pc, #216]	; (8001f2c <CAN_SCE_IRQHandler+0xec>)
 8001e54:	6899      	ldr	r1, [r3, #8]
 8001e56:	4e36      	ldr	r6, [pc, #216]	; (8001f30 <CAN_SCE_IRQHandler+0xf0>)
 8001e58:	689a      	ldr	r2, [r3, #8]
 8001e5a:	4d36      	ldr	r5, [pc, #216]	; (8001f34 <CAN_SCE_IRQHandler+0xf4>)
 8001e5c:	4038      	ands	r0, r7
 8001e5e:	42b8      	cmp	r0, r7
 8001e60:	ea01 0106 	and.w	r1, r1, r6
 8001e64:	bf04      	itt	eq
 8001e66:	2701      	moveq	r7, #1
 8001e68:	609f      	streq	r7, [r3, #8]
 8001e6a:	42b1      	cmp	r1, r6
 8001e6c:	bf08      	it	eq
 8001e6e:	4b2d      	ldreq	r3, [pc, #180]	; (8001f24 <CAN_SCE_IRQHandler+0xe4>)
 8001e70:	ea02 0205 	and.w	r2, r2, r5
 8001e74:	bf04      	itt	eq
 8001e76:	f44f 7680 	moveq.w	r6, #256	; 0x100
 8001e7a:	609e      	streq	r6, [r3, #8]
 8001e7c:	42aa      	cmp	r2, r5
 8001e7e:	bf02      	ittt	eq
 8001e80:	4b28      	ldreq	r3, [pc, #160]	; (8001f24 <CAN_SCE_IRQHandler+0xe4>)
 8001e82:	f44f 3580 	moveq.w	r5, #65536	; 0x10000
 8001e86:	609d      	streq	r5, [r3, #8]
 8001e88:	4b28      	ldr	r3, [pc, #160]	; (8001f2c <CAN_SCE_IRQHandler+0xec>)
 8001e8a:	4298      	cmp	r0, r3
 8001e8c:	d005      	beq.n	8001e9a <CAN_SCE_IRQHandler+0x5a>
 8001e8e:	4b28      	ldr	r3, [pc, #160]	; (8001f30 <CAN_SCE_IRQHandler+0xf0>)
 8001e90:	4299      	cmp	r1, r3
 8001e92:	d002      	beq.n	8001e9a <CAN_SCE_IRQHandler+0x5a>
 8001e94:	4b27      	ldr	r3, [pc, #156]	; (8001f34 <CAN_SCE_IRQHandler+0xf4>)
 8001e96:	429a      	cmp	r2, r3
 8001e98:	d105      	bne.n	8001ea6 <CAN_SCE_IRQHandler+0x66>
 8001e9a:	4b27      	ldr	r3, [pc, #156]	; (8001f38 <CAN_SCE_IRQHandler+0xf8>)
 8001e9c:	4a27      	ldr	r2, [pc, #156]	; (8001f3c <CAN_SCE_IRQHandler+0xfc>)
 8001e9e:	681b      	ldr	r3, [r3, #0]
 8001ea0:	6810      	ldr	r0, [r2, #0]
 8001ea2:	2101      	movs	r1, #1
 8001ea4:	4798      	blx	r3
 8001ea6:	6823      	ldr	r3, [r4, #0]
 8001ea8:	68da      	ldr	r2, [r3, #12]
 8001eaa:	695b      	ldr	r3, [r3, #20]
 8001eac:	0797      	lsls	r7, r2, #30
 8001eae:	d007      	beq.n	8001ec0 <CAN_SCE_IRQHandler+0x80>
 8001eb0:	079e      	lsls	r6, r3, #30
 8001eb2:	d505      	bpl.n	8001ec0 <CAN_SCE_IRQHandler+0x80>
 8001eb4:	4b20      	ldr	r3, [pc, #128]	; (8001f38 <CAN_SCE_IRQHandler+0xf8>)
 8001eb6:	4a21      	ldr	r2, [pc, #132]	; (8001f3c <CAN_SCE_IRQHandler+0xfc>)
 8001eb8:	681b      	ldr	r3, [r3, #0]
 8001eba:	6810      	ldr	r0, [r2, #0]
 8001ebc:	2100      	movs	r1, #0
 8001ebe:	4798      	blx	r3
 8001ec0:	6823      	ldr	r3, [r4, #0]
 8001ec2:	6999      	ldr	r1, [r3, #24]
 8001ec4:	695a      	ldr	r2, [r3, #20]
 8001ec6:	695b      	ldr	r3, [r3, #20]
 8001ec8:	078d      	lsls	r5, r1, #30
 8001eca:	d509      	bpl.n	8001ee0 <CAN_SCE_IRQHandler+0xa0>
 8001ecc:	0590      	lsls	r0, r2, #22
 8001ece:	d507      	bpl.n	8001ee0 <CAN_SCE_IRQHandler+0xa0>
 8001ed0:	0419      	lsls	r1, r3, #16
 8001ed2:	d505      	bpl.n	8001ee0 <CAN_SCE_IRQHandler+0xa0>
 8001ed4:	4b18      	ldr	r3, [pc, #96]	; (8001f38 <CAN_SCE_IRQHandler+0xf8>)
 8001ed6:	4a19      	ldr	r2, [pc, #100]	; (8001f3c <CAN_SCE_IRQHandler+0xfc>)
 8001ed8:	681b      	ldr	r3, [r3, #0]
 8001eda:	6810      	ldr	r0, [r2, #0]
 8001edc:	2105      	movs	r1, #5
 8001ede:	4798      	blx	r3
 8001ee0:	6822      	ldr	r2, [r4, #0]
 8001ee2:	6996      	ldr	r6, [r2, #24]
 8001ee4:	6955      	ldr	r5, [r2, #20]
 8001ee6:	6952      	ldr	r2, [r2, #20]
 8001ee8:	f016 0604 	ands.w	r6, r6, #4
 8001eec:	f405 6580 	and.w	r5, r5, #1024	; 0x400
 8001ef0:	d008      	beq.n	8001f04 <CAN_SCE_IRQHandler+0xc4>
 8001ef2:	b13d      	cbz	r5, 8001f04 <CAN_SCE_IRQHandler+0xc4>
 8001ef4:	0412      	lsls	r2, r2, #16
 8001ef6:	d505      	bpl.n	8001f04 <CAN_SCE_IRQHandler+0xc4>
 8001ef8:	4b0f      	ldr	r3, [pc, #60]	; (8001f38 <CAN_SCE_IRQHandler+0xf8>)
 8001efa:	4a10      	ldr	r2, [pc, #64]	; (8001f3c <CAN_SCE_IRQHandler+0xfc>)
 8001efc:	681b      	ldr	r3, [r3, #0]
 8001efe:	6810      	ldr	r0, [r2, #0]
 8001f00:	2107      	movs	r1, #7
 8001f02:	4798      	blx	r3
 8001f04:	6823      	ldr	r3, [r4, #0]
 8001f06:	695b      	ldr	r3, [r3, #20]
 8001f08:	b156      	cbz	r6, 8001f20 <CAN_SCE_IRQHandler+0xe0>
 8001f0a:	b14d      	cbz	r5, 8001f20 <CAN_SCE_IRQHandler+0xe0>
 8001f0c:	041b      	lsls	r3, r3, #16
 8001f0e:	d507      	bpl.n	8001f20 <CAN_SCE_IRQHandler+0xe0>
 8001f10:	4b09      	ldr	r3, [pc, #36]	; (8001f38 <CAN_SCE_IRQHandler+0xf8>)
 8001f12:	4a0a      	ldr	r2, [pc, #40]	; (8001f3c <CAN_SCE_IRQHandler+0xfc>)
 8001f14:	681b      	ldr	r3, [r3, #0]
 8001f16:	6810      	ldr	r0, [r2, #0]
 8001f18:	2102      	movs	r1, #2
 8001f1a:	e8bd 41f0 	ldmia.w	sp!, {r4, r5, r6, r7, r8, lr}
 8001f1e:	4718      	bx	r3
 8001f20:	e8bd 81f0 	ldmia.w	sp!, {r4, r5, r6, r7, r8, pc}
 8001f24:	40006400 	.word	0x40006400
 8001f28:	20000d90 	.word	0x20000d90
 8001f2c:	04000003 	.word	0x04000003
 8001f30:	08000300 	.word	0x08000300
 8001f34:	10030000 	.word	0x10030000
 8001f38:	20000dd4 	.word	0x20000dd4
 8001f3c:	20000dd0 	.word	0x20000dd0

08001f40 <CAN_TX_IRQHandler>:
 8001f40:	f7ff bf7e 	b.w	8001e40 <CAN_SCE_IRQHandler>

08001f44 <CAN_RX0_IRQHandler>:
 8001f44:	f7ff bf7c 	b.w	8001e40 <CAN_SCE_IRQHandler>

08001f48 <can_irq_init>:
 8001f48:	4b03      	ldr	r3, [pc, #12]	; (8001f58 <can_irq_init+0x10>)
 8001f4a:	6019      	str	r1, [r3, #0]
 8001f4c:	6841      	ldr	r1, [r0, #4]
 8001f4e:	4b03      	ldr	r3, [pc, #12]	; (8001f5c <can_irq_init+0x14>)
 8001f50:	f843 2021 	str.w	r2, [r3, r1, lsl #2]
 8001f54:	4770      	bx	lr
 8001f56:	bf00      	nop
 8001f58:	20000dd4 	.word	0x20000dd4
 8001f5c:	20000dd0 	.word	0x20000dd0

08001f60 <can_irq_free>:
 8001f60:	6802      	ldr	r2, [r0, #0]
 8001f62:	6953      	ldr	r3, [r2, #20]
 8001f64:	f423 4306 	bic.w	r3, r3, #34304	; 0x8600
 8001f68:	f023 0313 	bic.w	r3, r3, #19
 8001f6c:	6153      	str	r3, [r2, #20]
 8001f6e:	4b02      	ldr	r3, [pc, #8]	; (8001f78 <can_irq_free+0x18>)
 8001f70:	2100      	movs	r1, #0
 8001f72:	f843 1022 	str.w	r1, [r3, r2, lsl #2]
 8001f76:	4770      	bx	lr
 8001f78:	20000dd0 	.word	0x20000dd0

08001f7c <can_free>:
 8001f7c:	6802      	ldr	r2, [r0, #0]
 8001f7e:	4b09      	ldr	r3, [pc, #36]	; (8001fa4 <can_free+0x28>)
 8001f80:	429a      	cmp	r2, r3
 8001f82:	d10d      	bne.n	8001fa0 <can_free+0x24>
 8001f84:	f503 33d6 	add.w	r3, r3, #109568	; 0x1ac00
 8001f88:	691a      	ldr	r2, [r3, #16]
 8001f8a:	f042 7200 	orr.w	r2, r2, #33554432	; 0x2000000
 8001f8e:	611a      	str	r2, [r3, #16]
 8001f90:	691a      	ldr	r2, [r3, #16]
 8001f92:	f022 7200 	bic.w	r2, r2, #33554432	; 0x2000000
 8001f96:	611a      	str	r2, [r3, #16]
 8001f98:	69da      	ldr	r2, [r3, #28]
 8001f9a:	f022 7200 	bic.w	r2, r2, #33554432	; 0x2000000
 8001f9e:	61da      	str	r2, [r3, #28]
 8001fa0:	4770      	bx	lr
 8001fa2:	bf00      	nop
 8001fa4:	40006400 	.word	0x40006400

08001fa8 <can_frequency>:
 8001fa8:	b5f8      	push	{r3, r4, r5, r6, r7, lr}
 8001faa:	460d      	mov	r5, r1
 8001fac:	4604      	mov	r4, r0
 8001fae:	f001 f855 	bl	800305c <HAL_RCC_GetPCLK1Freq>
 8001fb2:	2318      	movs	r3, #24
 8001fb4:	fbb0 f0f5 	udiv	r0, r0, r5
 8001fb8:	2119      	movs	r1, #25
 8001fba:	fbb0 f3f3 	udiv	r3, r0, r3
 8001fbe:	0886      	lsrs	r6, r0, #2
 8001fc0:	b29b      	uxth	r3, r3
 8001fc2:	42b3      	cmp	r3, r6
 8001fc4:	d315      	bcc.n	8001ff2 <can_frequency+0x4a>
 8001fc6:	f04f 33ff 	mov.w	r3, #4294967295	; 0xffffffff
 8001fca:	2b00      	cmp	r3, #0
 8001fcc:	6822      	ldr	r2, [r4, #0]
 8001fce:	dd1c      	ble.n	800200a <can_frequency+0x62>
 8001fd0:	6811      	ldr	r1, [r2, #0]
 8001fd2:	f041 0101 	orr.w	r1, r1, #1
 8001fd6:	6011      	str	r1, [r2, #0]
 8001fd8:	6851      	ldr	r1, [r2, #4]
 8001fda:	07c9      	lsls	r1, r1, #31
 8001fdc:	d5fc      	bpl.n	8001fd8 <can_frequency+0x30>
 8001fde:	61d3      	str	r3, [r2, #28]
 8001fe0:	6813      	ldr	r3, [r2, #0]
 8001fe2:	f023 0301 	bic.w	r3, r3, #1
 8001fe6:	6013      	str	r3, [r2, #0]
 8001fe8:	6853      	ldr	r3, [r2, #4]
 8001fea:	07db      	lsls	r3, r3, #31
 8001fec:	d4fc      	bmi.n	8001fe8 <can_frequency+0x40>
 8001fee:	2001      	movs	r0, #1
 8001ff0:	bdf8      	pop	{r3, r4, r5, r6, r7, pc}
 8001ff2:	3301      	adds	r3, #1
 8001ff4:	b29b      	uxth	r3, r3
 8001ff6:	43df      	mvns	r7, r3
 8001ff8:	fb03 1201 	mla	r2, r3, r1, r1
 8001ffc:	2516      	movs	r5, #22
 8001ffe:	4290      	cmp	r0, r2
 8002000:	d005      	beq.n	800200e <can_frequency+0x66>
 8002002:	3d01      	subs	r5, #1
 8002004:	443a      	add	r2, r7
 8002006:	d1fa      	bne.n	8001ffe <can_frequency+0x56>
 8002008:	e7db      	b.n	8001fc2 <can_frequency+0x1a>
 800200a:	2000      	movs	r0, #0
 800200c:	bdf8      	pop	{r3, r4, r5, r6, r7, pc}
 800200e:	4908      	ldr	r1, [pc, #32]	; (8002030 <can_frequency+0x88>)
 8002010:	eb01 02c5 	add.w	r2, r1, r5, lsl #3
 8002014:	f851 1035 	ldr.w	r1, [r1, r5, lsl #3]
 8002018:	6852      	ldr	r2, [r2, #4]
 800201a:	0409      	lsls	r1, r1, #16
 800201c:	0512      	lsls	r2, r2, #20
 800201e:	f402 02e0 	and.w	r2, r2, #7340032	; 0x700000
 8002022:	f401 2170 	and.w	r1, r1, #983040	; 0xf0000
 8002026:	430a      	orrs	r2, r1
 8002028:	f3c3 0309 	ubfx	r3, r3, #0, #10
 800202c:	4313      	orrs	r3, r2
 800202e:	e7cc      	b.n	8001fca <can_frequency+0x22>
 8002030:	08006454 	.word	0x08006454

08002034 <can_write>:
 8002034:	b084      	sub	sp, #16
 8002036:	b530      	push	{r4, r5, lr}
 8002038:	ac04      	add	r4, sp, #16
 800203a:	e884 000e 	stmia.w	r4, {r1, r2, r3}
 800203e:	6804      	ldr	r4, [r0, #0]
 8002040:	f89d 201e 	ldrb.w	r2, [sp, #30]
 8002044:	68a3      	ldr	r3, [r4, #8]
 8002046:	0158      	lsls	r0, r3, #5
 8002048:	d43a      	bmi.n	80020c0 <can_write+0x8c>
 800204a:	68a3      	ldr	r3, [r4, #8]
 800204c:	011b      	lsls	r3, r3, #4
 800204e:	d439      	bmi.n	80020c4 <can_write+0x90>
 8002050:	68a0      	ldr	r0, [r4, #8]
 8002052:	f010 5080 	ands.w	r0, r0, #268435456	; 0x10000000
 8002056:	d02f      	beq.n	80020b8 <can_write+0x84>
 8002058:	2002      	movs	r0, #2
 800205a:	0100      	lsls	r0, r0, #4
 800205c:	1823      	adds	r3, r4, r0
 800205e:	f8d3 5180 	ldr.w	r5, [r3, #384]	; 0x180
 8002062:	f005 0501 	and.w	r5, r5, #1
 8002066:	f8c3 5180 	str.w	r5, [r3, #384]	; 0x180
 800206a:	f89d 501d 	ldrb.w	r5, [sp, #29]
 800206e:	bb5d      	cbnz	r5, 80020c8 <can_write+0x94>
 8002070:	f8d3 5180 	ldr.w	r5, [r3, #384]	; 0x180
 8002074:	ea42 5141 	orr.w	r1, r2, r1, lsl #21
 8002078:	4329      	orrs	r1, r5
 800207a:	f8c3 1180 	str.w	r1, [r3, #384]	; 0x180
 800207e:	f8d3 1184 	ldr.w	r1, [r3, #388]	; 0x184
 8002082:	f021 010f 	bic.w	r1, r1, #15
 8002086:	f8c3 1184 	str.w	r1, [r3, #388]	; 0x184
 800208a:	f89d 101c 	ldrb.w	r1, [sp, #28]
 800208e:	f8d3 2184 	ldr.w	r2, [r3, #388]	; 0x184
 8002092:	f001 010f 	and.w	r1, r1, #15
 8002096:	4311      	orrs	r1, r2
 8002098:	1822      	adds	r2, r4, r0
 800209a:	f8c3 1184 	str.w	r1, [r3, #388]	; 0x184
 800209e:	9905      	ldr	r1, [sp, #20]
 80020a0:	f8c2 1188 	str.w	r1, [r2, #392]	; 0x188
 80020a4:	9906      	ldr	r1, [sp, #24]
 80020a6:	f8c2 118c 	str.w	r1, [r2, #396]	; 0x18c
 80020aa:	f8d3 2180 	ldr.w	r2, [r3, #384]	; 0x180
 80020ae:	f042 0201 	orr.w	r2, r2, #1
 80020b2:	f8c3 2180 	str.w	r2, [r3, #384]	; 0x180
 80020b6:	2001      	movs	r0, #1
 80020b8:	e8bd 4030 	ldmia.w	sp!, {r4, r5, lr}
 80020bc:	b004      	add	sp, #16
 80020be:	4770      	bx	lr
 80020c0:	2000      	movs	r0, #0
 80020c2:	e7ca      	b.n	800205a <can_write+0x26>
 80020c4:	2001      	movs	r0, #1
 80020c6:	e7c8      	b.n	800205a <can_write+0x26>
 80020c8:	ea42 01c1 	orr.w	r1, r2, r1, lsl #3
 80020cc:	f8d3 5180 	ldr.w	r5, [r3, #384]	; 0x180
 80020d0:	f041 0104 	orr.w	r1, r1, #4
 80020d4:	e7d0      	b.n	8002078 <can_write+0x44>

080020d6 <can_read>:
 80020d6:	b530      	push	{r4, r5, lr}
 80020d8:	6804      	ldr	r4, [r0, #0]
 80020da:	68e0      	ldr	r0, [r4, #12]
 80020dc:	f010 0003 	ands.w	r0, r0, #3
 80020e0:	d03a      	beq.n	8002158 <can_read+0x82>
 80020e2:	0113      	lsls	r3, r2, #4
 80020e4:	18e0      	adds	r0, r4, r3
 80020e6:	f8d0 51b0 	ldr.w	r5, [r0, #432]	; 0x1b0
 80020ea:	f3c5 0580 	ubfx	r5, r5, #2, #1
 80020ee:	734d      	strb	r5, [r1, #13]
 80020f0:	bb9d      	cbnz	r5, 800215a <can_read+0x84>
 80020f2:	f8d0 51b0 	ldr.w	r5, [r0, #432]	; 0x1b0
 80020f6:	0d6d      	lsrs	r5, r5, #21
 80020f8:	600d      	str	r5, [r1, #0]
 80020fa:	f8d0 51b0 	ldr.w	r5, [r0, #432]	; 0x1b0
 80020fe:	f8d0 01b4 	ldr.w	r0, [r0, #436]	; 0x1b4
 8002102:	4423      	add	r3, r4
 8002104:	f000 000f 	and.w	r0, r0, #15
 8002108:	7308      	strb	r0, [r1, #12]
 800210a:	f8d3 01b8 	ldr.w	r0, [r3, #440]	; 0x1b8
 800210e:	7108      	strb	r0, [r1, #4]
 8002110:	f8d3 01b8 	ldr.w	r0, [r3, #440]	; 0x1b8
 8002114:	0a00      	lsrs	r0, r0, #8
 8002116:	7148      	strb	r0, [r1, #5]
 8002118:	f8d3 01b8 	ldr.w	r0, [r3, #440]	; 0x1b8
 800211c:	0c00      	lsrs	r0, r0, #16
 800211e:	7188      	strb	r0, [r1, #6]
 8002120:	f8d3 01b8 	ldr.w	r0, [r3, #440]	; 0x1b8
 8002124:	0e00      	lsrs	r0, r0, #24
 8002126:	71c8      	strb	r0, [r1, #7]
 8002128:	f8d3 01bc 	ldr.w	r0, [r3, #444]	; 0x1bc
 800212c:	7208      	strb	r0, [r1, #8]
 800212e:	f8d3 01bc 	ldr.w	r0, [r3, #444]	; 0x1bc
 8002132:	0a00      	lsrs	r0, r0, #8
 8002134:	7248      	strb	r0, [r1, #9]
 8002136:	f8d3 01bc 	ldr.w	r0, [r3, #444]	; 0x1bc
 800213a:	0c00      	lsrs	r0, r0, #16
 800213c:	7288      	strb	r0, [r1, #10]
 800213e:	f8d3 31bc 	ldr.w	r3, [r3, #444]	; 0x1bc
 8002142:	f3c5 0540 	ubfx	r5, r5, #1, #1
 8002146:	0e1b      	lsrs	r3, r3, #24
 8002148:	738d      	strb	r5, [r1, #14]
 800214a:	72cb      	strb	r3, [r1, #11]
 800214c:	b94a      	cbnz	r2, 8002162 <can_read+0x8c>
 800214e:	68e3      	ldr	r3, [r4, #12]
 8002150:	f043 0320 	orr.w	r3, r3, #32
 8002154:	60e3      	str	r3, [r4, #12]
 8002156:	2001      	movs	r0, #1
 8002158:	bd30      	pop	{r4, r5, pc}
 800215a:	f8d0 51b0 	ldr.w	r5, [r0, #432]	; 0x1b0
 800215e:	08ed      	lsrs	r5, r5, #3
 8002160:	e7ca      	b.n	80020f8 <can_read+0x22>
 8002162:	6923      	ldr	r3, [r4, #16]
 8002164:	f043 0320 	orr.w	r3, r3, #32
 8002168:	6123      	str	r3, [r4, #16]
 800216a:	e7f4      	b.n	8002156 <can_read+0x80>

0800216c <can_filter>:
 800216c:	b530      	push	{r4, r5, lr}
 800216e:	b08b      	sub	sp, #44	; 0x2c
 8002170:	2b01      	cmp	r3, #1
 8002172:	9c0e      	ldr	r4, [sp, #56]	; 0x38
 8002174:	d82b      	bhi.n	80021ce <can_filter+0x62>
 8002176:	6805      	ldr	r5, [r0, #0]
 8002178:	4816      	ldr	r0, [pc, #88]	; (80021d4 <can_filter+0x68>)
 800217a:	9405      	str	r4, [sp, #20]
 800217c:	6005      	str	r5, [r0, #0]
 800217e:	2000      	movs	r0, #0
 8002180:	9006      	str	r0, [sp, #24]
 8002182:	2001      	movs	r0, #1
 8002184:	9007      	str	r0, [sp, #28]
 8002186:	b99b      	cbnz	r3, 80021b0 <can_filter+0x44>
 8002188:	0149      	lsls	r1, r1, #5
 800218a:	e88d 000a 	stmia.w	sp, {r1, r3}
 800218e:	0152      	lsls	r2, r2, #5
 8002190:	9202      	str	r2, [sp, #8]
 8002192:	9303      	str	r3, [sp, #12]
 8002194:	2300      	movs	r3, #0
 8002196:	9304      	str	r3, [sp, #16]
 8002198:	2301      	movs	r3, #1
 800219a:	9308      	str	r3, [sp, #32]
 800219c:	4669      	mov	r1, sp
 800219e:	f104 030e 	add.w	r3, r4, #14
 80021a2:	480c      	ldr	r0, [pc, #48]	; (80021d4 <can_filter+0x68>)
 80021a4:	9309      	str	r3, [sp, #36]	; 0x24
 80021a6:	f000 ffdb 	bl	8003160 <HAL_CAN_ConfigFilter>
 80021aa:	4620      	mov	r0, r4
 80021ac:	b00b      	add	sp, #44	; 0x2c
 80021ae:	bd30      	pop	{r4, r5, pc}
 80021b0:	0b4b      	lsrs	r3, r1, #13
 80021b2:	9300      	str	r3, [sp, #0]
 80021b4:	00c9      	lsls	r1, r1, #3
 80021b6:	0b53      	lsrs	r3, r2, #13
 80021b8:	00d2      	lsls	r2, r2, #3
 80021ba:	b2c9      	uxtb	r1, r1
 80021bc:	b2d2      	uxtb	r2, r2
 80021be:	f041 0104 	orr.w	r1, r1, #4
 80021c2:	f042 0204 	orr.w	r2, r2, #4
 80021c6:	9101      	str	r1, [sp, #4]
 80021c8:	9302      	str	r3, [sp, #8]
 80021ca:	9203      	str	r2, [sp, #12]
 80021cc:	e7e2      	b.n	8002194 <can_filter+0x28>
 80021ce:	2000      	movs	r0, #0
 80021d0:	e7ec      	b.n	80021ac <can_filter+0x40>
 80021d2:	bf00      	nop
 80021d4:	20000d90 	.word	0x20000d90

080021d8 <can_init>:
 80021d8:	b5f0      	push	{r4, r5, r6, r7, lr}
 80021da:	460e      	mov	r6, r1
 80021dc:	b085      	sub	sp, #20
 80021de:	4604      	mov	r4, r0
 80021e0:	492f      	ldr	r1, [pc, #188]	; (80022a0 <can_init+0xc8>)
 80021e2:	4630      	mov	r0, r6
 80021e4:	4615      	mov	r5, r2
 80021e6:	f7fe f9a3 	bl	8000530 <pinmap_peripheral>
 80021ea:	492e      	ldr	r1, [pc, #184]	; (80022a4 <can_init+0xcc>)
 80021ec:	4607      	mov	r7, r0
 80021ee:	4628      	mov	r0, r5
 80021f0:	f7fe f99e 	bl	8000530 <pinmap_peripheral>
 80021f4:	4601      	mov	r1, r0
 80021f6:	4638      	mov	r0, r7
 80021f8:	f7fe f97c 	bl	80004f4 <pinmap_merge>
 80021fc:	4b2a      	ldr	r3, [pc, #168]	; (80022a8 <can_init+0xd0>)
 80021fe:	6020      	str	r0, [r4, #0]
 8002200:	4298      	cmp	r0, r3
 8002202:	d14b      	bne.n	800229c <can_init+0xc4>
 8002204:	f503 33d6 	add.w	r3, r3, #109568	; 0x1ac00
 8002208:	4925      	ldr	r1, [pc, #148]	; (80022a0 <can_init+0xc8>)
 800220a:	69da      	ldr	r2, [r3, #28]
 800220c:	f042 7200 	orr.w	r2, r2, #33554432	; 0x2000000
 8002210:	61da      	str	r2, [r3, #28]
 8002212:	69db      	ldr	r3, [r3, #28]
 8002214:	f003 7300 	and.w	r3, r3, #33554432	; 0x2000000
 8002218:	9303      	str	r3, [sp, #12]
 800221a:	9b03      	ldr	r3, [sp, #12]
 800221c:	2300      	movs	r3, #0
 800221e:	6063      	str	r3, [r4, #4]
 8002220:	4630      	mov	r0, r6
 8002222:	f7fe f949 	bl	80004b8 <pinmap_pinout>
 8002226:	491f      	ldr	r1, [pc, #124]	; (80022a4 <can_init+0xcc>)
 8002228:	4628      	mov	r0, r5
 800222a:	f7fe f945 	bl	80004b8 <pinmap_pinout>
 800222e:	1c72      	adds	r2, r6, #1
 8002230:	d003      	beq.n	800223a <can_init+0x62>
 8002232:	2101      	movs	r1, #1
 8002234:	4630      	mov	r0, r6
 8002236:	f000 f95b 	bl	80024f0 <pin_mode>
 800223a:	1c6b      	adds	r3, r5, #1
 800223c:	d003      	beq.n	8002246 <can_init+0x6e>
 800223e:	2101      	movs	r1, #1
 8002240:	4628      	mov	r0, r5
 8002242:	f000 f955 	bl	80024f0 <pin_mode>
 8002246:	4819      	ldr	r0, [pc, #100]	; (80022ac <can_init+0xd4>)
 8002248:	6823      	ldr	r3, [r4, #0]
 800224a:	6003      	str	r3, [r0, #0]
 800224c:	2300      	movs	r3, #0
 800224e:	6183      	str	r3, [r0, #24]
 8002250:	61c3      	str	r3, [r0, #28]
 8002252:	6203      	str	r3, [r0, #32]
 8002254:	6243      	str	r3, [r0, #36]	; 0x24
 8002256:	6283      	str	r3, [r0, #40]	; 0x28
 8002258:	62c3      	str	r3, [r0, #44]	; 0x2c
 800225a:	6083      	str	r3, [r0, #8]
 800225c:	60c3      	str	r3, [r0, #12]
 800225e:	f44f 23a0 	mov.w	r3, #327680	; 0x50000
 8002262:	6103      	str	r3, [r0, #16]
 8002264:	f44f 03e0 	mov.w	r3, #7340032	; 0x700000
 8002268:	6143      	str	r3, [r0, #20]
 800226a:	2302      	movs	r3, #2
 800226c:	6043      	str	r3, [r0, #4]
 800226e:	f000 ffd8 	bl	8003222 <HAL_CAN_Init>
 8002272:	b110      	cbz	r0, 800227a <can_init+0xa2>
 8002274:	480e      	ldr	r0, [pc, #56]	; (80022b0 <can_init+0xd8>)
 8002276:	f7fe f987 	bl	8000588 <error>
 800227a:	490e      	ldr	r1, [pc, #56]	; (80022b4 <can_init+0xdc>)
 800227c:	4620      	mov	r0, r4
 800227e:	f7ff fe93 	bl	8001fa8 <can_frequency>
 8002282:	4a09      	ldr	r2, [pc, #36]	; (80022a8 <can_init+0xd0>)
 8002284:	6823      	ldr	r3, [r4, #0]
 8002286:	4293      	cmp	r3, r2
 8002288:	bf14      	ite	ne
 800228a:	230e      	movne	r3, #14
 800228c:	2300      	moveq	r3, #0
 800228e:	9300      	str	r3, [sp, #0]
 8002290:	2300      	movs	r3, #0
 8002292:	461a      	mov	r2, r3
 8002294:	4619      	mov	r1, r3
 8002296:	4620      	mov	r0, r4
 8002298:	f7ff ff68 	bl	800216c <can_filter>
 800229c:	b005      	add	sp, #20
 800229e:	bdf0      	pop	{r4, r5, r6, r7, pc}
 80022a0:	08006564 	.word	0x08006564
 80022a4:	0800657c 	.word	0x0800657c
 80022a8:	40006400 	.word	0x40006400
 80022ac:	20000d90 	.word	0x20000d90
 80022b0:	0800643d 	.word	0x0800643d
 80022b4:	000186a0 	.word	0x000186a0

080022b8 <can_irq_set>:
 80022b8:	4b19      	ldr	r3, [pc, #100]	; (8002320 <can_irq_set+0x68>)
 80022ba:	6800      	ldr	r0, [r0, #0]
 80022bc:	4298      	cmp	r0, r3
 80022be:	b510      	push	{r4, lr}
 80022c0:	4618      	mov	r0, r3
 80022c2:	d116      	bne.n	80022f2 <can_irq_set+0x3a>
 80022c4:	2907      	cmp	r1, #7
 80022c6:	d814      	bhi.n	80022f2 <can_irq_set+0x3a>
 80022c8:	e8df f001 	tbb	[pc, r1]
 80022cc:	13181404 	.word	0x13181404
 80022d0:	21131d13 	.word	0x21131d13
 80022d4:	4913      	ldr	r1, [pc, #76]	; (8002324 <can_irq_set+0x6c>)
 80022d6:	2302      	movs	r3, #2
 80022d8:	2414      	movs	r4, #20
 80022da:	b1e2      	cbz	r2, 8002316 <can_irq_set+0x5e>
 80022dc:	6942      	ldr	r2, [r0, #20]
 80022de:	4313      	orrs	r3, r2
 80022e0:	6143      	str	r3, [r0, #20]
 80022e2:	4620      	mov	r0, r4
 80022e4:	f000 fb24 	bl	8002930 <__NVIC_SetVector>
 80022e8:	2301      	movs	r3, #1
 80022ea:	fa03 f404 	lsl.w	r4, r3, r4
 80022ee:	4b0e      	ldr	r3, [pc, #56]	; (8002328 <can_irq_set+0x70>)
 80022f0:	601c      	str	r4, [r3, #0]
 80022f2:	bd10      	pop	{r4, pc}
 80022f4:	490d      	ldr	r1, [pc, #52]	; (800232c <can_irq_set+0x74>)
 80022f6:	2301      	movs	r3, #1
 80022f8:	2413      	movs	r4, #19
 80022fa:	e7ee      	b.n	80022da <can_irq_set+0x22>
 80022fc:	490c      	ldr	r1, [pc, #48]	; (8002330 <can_irq_set+0x78>)
 80022fe:	f44f 4300 	mov.w	r3, #32768	; 0x8000
 8002302:	2416      	movs	r4, #22
 8002304:	e7e9      	b.n	80022da <can_irq_set+0x22>
 8002306:	490a      	ldr	r1, [pc, #40]	; (8002330 <can_irq_set+0x78>)
 8002308:	f44f 7300 	mov.w	r3, #512	; 0x200
 800230c:	e7f9      	b.n	8002302 <can_irq_set+0x4a>
 800230e:	4908      	ldr	r1, [pc, #32]	; (8002330 <can_irq_set+0x78>)
 8002310:	f44f 6380 	mov.w	r3, #1024	; 0x400
 8002314:	e7f5      	b.n	8002302 <can_irq_set+0x4a>
 8002316:	6942      	ldr	r2, [r0, #20]
 8002318:	ea22 0303 	bic.w	r3, r2, r3
 800231c:	e7e0      	b.n	80022e0 <can_irq_set+0x28>
 800231e:	bf00      	nop
 8002320:	40006400 	.word	0x40006400
 8002324:	08001f45 	.word	0x08001f45
 8002328:	e000e100 	.word	0xe000e100
 800232c:	08001f41 	.word	0x08001f41
 8002330:	08001e41 	.word	0x08001e41

08002334 <us_ticker_init>:
 8002334:	4b05      	ldr	r3, [pc, #20]	; (800234c <us_ticker_init+0x18>)
 8002336:	6818      	ldr	r0, [r3, #0]
 8002338:	b938      	cbnz	r0, 800234a <us_ticker_init+0x16>
 800233a:	2201      	movs	r2, #1
 800233c:	601a      	str	r2, [r3, #0]
 800233e:	4b04      	ldr	r3, [pc, #16]	; (8002350 <us_ticker_init+0x1c>)
 8002340:	f04f 4280 	mov.w	r2, #1073741824	; 0x40000000
 8002344:	601a      	str	r2, [r3, #0]
 8002346:	f7ff bc49 	b.w	8001bdc <HAL_InitTick>
 800234a:	4770      	bx	lr
 800234c:	20000dd8 	.word	0x20000dd8
 8002350:	20001a20 	.word	0x20001a20

08002354 <us_ticker_read>:
 8002354:	b508      	push	{r3, lr}
 8002356:	4b04      	ldr	r3, [pc, #16]	; (8002368 <us_ticker_read+0x14>)
 8002358:	681b      	ldr	r3, [r3, #0]
 800235a:	b90b      	cbnz	r3, 8002360 <us_ticker_read+0xc>
 800235c:	f7ff ffea 	bl	8002334 <us_ticker_init>
 8002360:	f04f 4380 	mov.w	r3, #1073741824	; 0x40000000
 8002364:	6a58      	ldr	r0, [r3, #36]	; 0x24
 8002366:	bd08      	pop	{r3, pc}
 8002368:	20000dd8 	.word	0x20000dd8

0800236c <us_ticker_set_interrupt>:
 800236c:	f04f 4380 	mov.w	r3, #1073741824	; 0x40000000
 8002370:	4a03      	ldr	r2, [pc, #12]	; (8002380 <us_ticker_set_interrupt+0x14>)
 8002372:	6013      	str	r3, [r2, #0]
 8002374:	6358      	str	r0, [r3, #52]	; 0x34
 8002376:	68da      	ldr	r2, [r3, #12]
 8002378:	f042 0202 	orr.w	r2, r2, #2
 800237c:	60da      	str	r2, [r3, #12]
 800237e:	4770      	bx	lr
 8002380:	20001a20 	.word	0x20001a20

08002384 <us_ticker_disable_interrupt>:
 8002384:	f04f 4380 	mov.w	r3, #1073741824	; 0x40000000
 8002388:	4a03      	ldr	r2, [pc, #12]	; (8002398 <us_ticker_disable_interrupt+0x14>)
 800238a:	6013      	str	r3, [r2, #0]
 800238c:	68da      	ldr	r2, [r3, #12]
 800238e:	f022 0202 	bic.w	r2, r2, #2
 8002392:	60da      	str	r2, [r3, #12]
 8002394:	4770      	bx	lr
 8002396:	bf00      	nop
 8002398:	20001a20 	.word	0x20001a20

0800239c <us_ticker_clear_interrupt>:
 800239c:	4a03      	ldr	r2, [pc, #12]	; (80023ac <us_ticker_clear_interrupt+0x10>)
 800239e:	f04f 4380 	mov.w	r3, #1073741824	; 0x40000000
 80023a2:	6013      	str	r3, [r2, #0]
 80023a4:	f06f 0202 	mvn.w	r2, #2
 80023a8:	611a      	str	r2, [r3, #16]
 80023aa:	4770      	bx	lr
 80023ac:	20001a20 	.word	0x20001a20

080023b0 <LL_GPIO_SetPinPull>:
 80023b0:	b530      	push	{r4, r5, lr}
 80023b2:	68c3      	ldr	r3, [r0, #12]
 80023b4:	fa91 f4a1 	rbit	r4, r1
 80023b8:	fab4 f484 	clz	r4, r4
 80023bc:	fa91 f1a1 	rbit	r1, r1
 80023c0:	2503      	movs	r5, #3
 80023c2:	fab1 f181 	clz	r1, r1
 80023c6:	0064      	lsls	r4, r4, #1
 80023c8:	fa05 f404 	lsl.w	r4, r5, r4
 80023cc:	0049      	lsls	r1, r1, #1
 80023ce:	ea23 0304 	bic.w	r3, r3, r4
 80023d2:	fa02 f101 	lsl.w	r1, r2, r1
 80023d6:	4319      	orrs	r1, r3
 80023d8:	60c1      	str	r1, [r0, #12]
 80023da:	bd30      	pop	{r4, r5, pc}

080023dc <stm_pin_PullConfig>:
 80023dc:	2a01      	cmp	r2, #1
 80023de:	d002      	beq.n	80023e6 <stm_pin_PullConfig+0xa>
 80023e0:	2a02      	cmp	r2, #2
 80023e2:	bf18      	it	ne
 80023e4:	2200      	movne	r2, #0
 80023e6:	f7ff bfe3 	b.w	80023b0 <LL_GPIO_SetPinPull>
	...

080023ec <pin_function>:
 80023ec:	e92d 41f0 	stmdb	sp!, {r4, r5, r6, r7, r8, lr}
 80023f0:	4b3e      	ldr	r3, [pc, #248]	; (80024ec <pin_function+0x100>)
 80023f2:	f000 080f 	and.w	r8, r0, #15
 80023f6:	f3c0 1003 	ubfx	r0, r0, #4, #4
 80023fa:	460e      	mov	r6, r1
 80023fc:	f001 0507 	and.w	r5, r1, #7
 8002400:	f853 4028 	ldr.w	r4, [r3, r8, lsl #2]
 8002404:	f7ff fc60 	bl	8001cc8 <Set_GPIO_Clock>
 8002408:	6882      	ldr	r2, [r0, #8]
 800240a:	fa94 f3a4 	rbit	r3, r4
 800240e:	fab3 f383 	clz	r3, r3
 8002412:	fa94 f1a4 	rbit	r1, r4
 8002416:	2703      	movs	r7, #3
 8002418:	005b      	lsls	r3, r3, #1
 800241a:	fab1 f181 	clz	r1, r1
 800241e:	fa07 f303 	lsl.w	r3, r7, r3
 8002422:	ea22 0303 	bic.w	r3, r2, r3
 8002426:	004a      	lsls	r2, r1, #1
 8002428:	fa07 f202 	lsl.w	r2, r7, r2
 800242c:	4313      	orrs	r3, r2
 800242e:	2d02      	cmp	r5, #2
 8002430:	6083      	str	r3, [r0, #8]
 8002432:	d028      	beq.n	8002486 <pin_function+0x9a>
 8002434:	42bd      	cmp	r5, r7
 8002436:	d041      	beq.n	80024bc <pin_function+0xd0>
 8002438:	2d01      	cmp	r5, #1
 800243a:	d03f      	beq.n	80024bc <pin_function+0xd0>
 800243c:	2300      	movs	r3, #0
 800243e:	6802      	ldr	r2, [r0, #0]
 8002440:	fa94 f7a4 	rbit	r7, r4
 8002444:	fab7 f787 	clz	r7, r7
 8002448:	fa94 f1a4 	rbit	r1, r4
 800244c:	f04f 0e03 	mov.w	lr, #3
 8002450:	fab1 f181 	clz	r1, r1
 8002454:	007f      	lsls	r7, r7, #1
 8002456:	fa0e f707 	lsl.w	r7, lr, r7
 800245a:	0049      	lsls	r1, r1, #1
 800245c:	ea22 0207 	bic.w	r2, r2, r7
 8002460:	408b      	lsls	r3, r1
 8002462:	3d01      	subs	r5, #1
 8002464:	4313      	orrs	r3, r2
 8002466:	2d01      	cmp	r5, #1
 8002468:	6003      	str	r3, [r0, #0]
 800246a:	d805      	bhi.n	8002478 <pin_function+0x8c>
 800246c:	6843      	ldr	r3, [r0, #4]
 800246e:	0732      	lsls	r2, r6, #28
 8002470:	bf4c      	ite	mi
 8002472:	4323      	orrmi	r3, r4
 8002474:	43a3      	bicpl	r3, r4
 8002476:	6043      	str	r3, [r0, #4]
 8002478:	f3c6 1201 	ubfx	r2, r6, #4, #2
 800247c:	4621      	mov	r1, r4
 800247e:	e8bd 41f0 	ldmia.w	sp!, {r4, r5, r6, r7, r8, lr}
 8002482:	f7ff bfab 	b.w	80023dc <stm_pin_PullConfig>
 8002486:	f1b8 0f07 	cmp.w	r8, #7
 800248a:	f3c6 2703 	ubfx	r7, r6, #8, #4
 800248e:	d917      	bls.n	80024c0 <pin_function+0xd4>
 8002490:	6a42      	ldr	r2, [r0, #36]	; 0x24
 8002492:	0a23      	lsrs	r3, r4, #8
 8002494:	fa93 f1a3 	rbit	r1, r3
 8002498:	fab1 f181 	clz	r1, r1
 800249c:	fa93 f3a3 	rbit	r3, r3
 80024a0:	f04f 0e0f 	mov.w	lr, #15
 80024a4:	fab3 f383 	clz	r3, r3
 80024a8:	0089      	lsls	r1, r1, #2
 80024aa:	fa0e f101 	lsl.w	r1, lr, r1
 80024ae:	009b      	lsls	r3, r3, #2
 80024b0:	ea22 0201 	bic.w	r2, r2, r1
 80024b4:	fa07 f303 	lsl.w	r3, r7, r3
 80024b8:	4313      	orrs	r3, r2
 80024ba:	6243      	str	r3, [r0, #36]	; 0x24
 80024bc:	462b      	mov	r3, r5
 80024be:	e7be      	b.n	800243e <pin_function+0x52>
 80024c0:	6a02      	ldr	r2, [r0, #32]
 80024c2:	fa94 f3a4 	rbit	r3, r4
 80024c6:	fab3 f383 	clz	r3, r3
 80024ca:	fa94 f1a4 	rbit	r1, r4
 80024ce:	f04f 0e0f 	mov.w	lr, #15
 80024d2:	fab1 f181 	clz	r1, r1
 80024d6:	009b      	lsls	r3, r3, #2
 80024d8:	fa0e f303 	lsl.w	r3, lr, r3
 80024dc:	0089      	lsls	r1, r1, #2
 80024de:	ea22 0203 	bic.w	r2, r2, r3
 80024e2:	fa07 f301 	lsl.w	r3, r7, r1
 80024e6:	4313      	orrs	r3, r2
 80024e8:	6203      	str	r3, [r0, #32]
 80024ea:	e7e7      	b.n	80024bc <pin_function+0xd0>
 80024ec:	0800650c 	.word	0x0800650c

080024f0 <pin_mode>:
 80024f0:	f000 020f 	and.w	r2, r0, #15
 80024f4:	4b1c      	ldr	r3, [pc, #112]	; (8002568 <pin_mode+0x78>)
 80024f6:	b570      	push	{r4, r5, r6, lr}
 80024f8:	f3c0 1003 	ubfx	r0, r0, #4, #4
 80024fc:	460d      	mov	r5, r1
 80024fe:	f853 4022 	ldr.w	r4, [r3, r2, lsl #2]
 8002502:	f7ff fbe1 	bl	8001cc8 <Set_GPIO_Clock>
 8002506:	6806      	ldr	r6, [r0, #0]
 8002508:	fa94 f1a4 	rbit	r1, r4
 800250c:	fab1 f381 	clz	r3, r1
 8002510:	fa94 f2a4 	rbit	r2, r4
 8002514:	0059      	lsls	r1, r3, #1
 8002516:	2303      	movs	r3, #3
 8002518:	fab2 f282 	clz	r2, r2
 800251c:	408b      	lsls	r3, r1
 800251e:	4033      	ands	r3, r6
 8002520:	0052      	lsls	r2, r2, #1
 8002522:	40d3      	lsrs	r3, r2
 8002524:	3b01      	subs	r3, #1
 8002526:	2b01      	cmp	r3, #1
 8002528:	d805      	bhi.n	8002536 <pin_mode+0x46>
 800252a:	1eeb      	subs	r3, r5, #3
 800252c:	2b02      	cmp	r3, #2
 800252e:	6843      	ldr	r3, [r0, #4]
 8002530:	d809      	bhi.n	8002546 <pin_mode+0x56>
 8002532:	4323      	orrs	r3, r4
 8002534:	6043      	str	r3, [r0, #4]
 8002536:	2d03      	cmp	r5, #3
 8002538:	d108      	bne.n	800254c <pin_mode+0x5c>
 800253a:	2201      	movs	r2, #1
 800253c:	4621      	mov	r1, r4
 800253e:	e8bd 4070 	ldmia.w	sp!, {r4, r5, r6, lr}
 8002542:	f7ff bf4b 	b.w	80023dc <stm_pin_PullConfig>
 8002546:	ea23 0304 	bic.w	r3, r3, r4
 800254a:	6043      	str	r3, [r0, #4]
 800254c:	2d01      	cmp	r5, #1
 800254e:	d0f4      	beq.n	800253a <pin_mode+0x4a>
 8002550:	2d05      	cmp	r5, #5
 8002552:	d001      	beq.n	8002558 <pin_mode+0x68>
 8002554:	2d02      	cmp	r5, #2
 8002556:	d101      	bne.n	800255c <pin_mode+0x6c>
 8002558:	2202      	movs	r2, #2
 800255a:	e7ef      	b.n	800253c <pin_mode+0x4c>
 800255c:	4621      	mov	r1, r4
 800255e:	2200      	movs	r2, #0
 8002560:	e8bd 4070 	ldmia.w	sp!, {r4, r5, r6, lr}
 8002564:	f7ff bf24 	b.w	80023b0 <LL_GPIO_SetPinPull>
 8002568:	0800650c 	.word	0x0800650c

0800256c <init_uart>:
 800256c:	6843      	ldr	r3, [r0, #4]
 800256e:	4918      	ldr	r1, [pc, #96]	; (80025d0 <init_uart+0x64>)
 8002570:	2270      	movs	r2, #112	; 0x70
 8002572:	435a      	muls	r2, r3
 8002574:	b510      	push	{r4, lr}
 8002576:	188b      	adds	r3, r1, r2
 8002578:	6804      	ldr	r4, [r0, #0]
 800257a:	508c      	str	r4, [r1, r2]
 800257c:	6882      	ldr	r2, [r0, #8]
 800257e:	605a      	str	r2, [r3, #4]
 8002580:	68c2      	ldr	r2, [r0, #12]
 8002582:	609a      	str	r2, [r3, #8]
 8002584:	6902      	ldr	r2, [r0, #16]
 8002586:	60da      	str	r2, [r3, #12]
 8002588:	6942      	ldr	r2, [r0, #20]
 800258a:	611a      	str	r2, [r3, #16]
 800258c:	69c2      	ldr	r2, [r0, #28]
 800258e:	619a      	str	r2, [r3, #24]
 8002590:	2200      	movs	r2, #0
 8002592:	f8a3 2052 	strh.w	r2, [r3, #82]	; 0x52
 8002596:	f8a3 2050 	strh.w	r2, [r3, #80]	; 0x50
 800259a:	f8a3 205a 	strh.w	r2, [r3, #90]	; 0x5a
 800259e:	f8a3 2058 	strh.w	r2, [r3, #88]	; 0x58
 80025a2:	f9b0 201a 	ldrsh.w	r2, [r0, #26]
 80025a6:	3201      	adds	r2, #1
 80025a8:	d10a      	bne.n	80025c0 <init_uart+0x54>
 80025aa:	2208      	movs	r2, #8
 80025ac:	615a      	str	r2, [r3, #20]
 80025ae:	4618      	mov	r0, r3
 80025b0:	f001 f8c1 	bl	8003736 <HAL_UART_Init>
 80025b4:	b158      	cbz	r0, 80025ce <init_uart+0x62>
 80025b6:	4807      	ldr	r0, [pc, #28]	; (80025d4 <init_uart+0x68>)
 80025b8:	e8bd 4010 	ldmia.w	sp!, {r4, lr}
 80025bc:	f7fd bfe4 	b.w	8000588 <error>
 80025c0:	f9b0 2018 	ldrsh.w	r2, [r0, #24]
 80025c4:	3201      	adds	r2, #1
 80025c6:	bf0c      	ite	eq
 80025c8:	2204      	moveq	r2, #4
 80025ca:	220c      	movne	r2, #12
 80025cc:	e7ee      	b.n	80025ac <init_uart+0x40>
 80025ce:	bd10      	pop	{r4, pc}
 80025d0:	20000df8 	.word	0x20000df8
 80025d4:	0800654c 	.word	0x0800654c

080025d8 <serial_init>:
 80025d8:	b5f0      	push	{r4, r5, r6, r7, lr}
 80025da:	460e      	mov	r6, r1
 80025dc:	b085      	sub	sp, #20
 80025de:	4604      	mov	r4, r0
 80025e0:	4949      	ldr	r1, [pc, #292]	; (8002708 <serial_init+0x130>)
 80025e2:	4630      	mov	r0, r6
 80025e4:	4615      	mov	r5, r2
 80025e6:	f7fd ffa3 	bl	8000530 <pinmap_peripheral>
 80025ea:	4948      	ldr	r1, [pc, #288]	; (800270c <serial_init+0x134>)
 80025ec:	4607      	mov	r7, r0
 80025ee:	4628      	mov	r0, r5
 80025f0:	f7fd ff9e 	bl	8000530 <pinmap_peripheral>
 80025f4:	4601      	mov	r1, r0
 80025f6:	4638      	mov	r0, r7
 80025f8:	f7fd ff7c 	bl	80004f4 <pinmap_merge>
 80025fc:	4b44      	ldr	r3, [pc, #272]	; (8002710 <serial_init+0x138>)
 80025fe:	6020      	str	r0, [r4, #0]
 8002600:	4298      	cmp	r0, r3
 8002602:	d151      	bne.n	80026a8 <serial_init+0xd0>
 8002604:	f503 4358 	add.w	r3, r3, #55296	; 0xd800
 8002608:	68da      	ldr	r2, [r3, #12]
 800260a:	f442 4280 	orr.w	r2, r2, #16384	; 0x4000
 800260e:	60da      	str	r2, [r3, #12]
 8002610:	68da      	ldr	r2, [r3, #12]
 8002612:	f422 4280 	bic.w	r2, r2, #16384	; 0x4000
 8002616:	60da      	str	r2, [r3, #12]
 8002618:	699a      	ldr	r2, [r3, #24]
 800261a:	f442 4280 	orr.w	r2, r2, #16384	; 0x4000
 800261e:	619a      	str	r2, [r3, #24]
 8002620:	699a      	ldr	r2, [r3, #24]
 8002622:	f402 4280 	and.w	r2, r2, #16384	; 0x4000
 8002626:	9201      	str	r2, [sp, #4]
 8002628:	9a01      	ldr	r2, [sp, #4]
 800262a:	6b1a      	ldr	r2, [r3, #48]	; 0x30
 800262c:	f022 0203 	bic.w	r2, r2, #3
 8002630:	f042 0201 	orr.w	r2, r2, #1
 8002634:	631a      	str	r2, [r3, #48]	; 0x30
 8002636:	2300      	movs	r3, #0
 8002638:	6063      	str	r3, [r4, #4]
 800263a:	4933      	ldr	r1, [pc, #204]	; (8002708 <serial_init+0x130>)
 800263c:	4630      	mov	r0, r6
 800263e:	f7fd ff3b 	bl	80004b8 <pinmap_pinout>
 8002642:	4932      	ldr	r1, [pc, #200]	; (800270c <serial_init+0x134>)
 8002644:	4628      	mov	r0, r5
 8002646:	f7fd ff37 	bl	80004b8 <pinmap_pinout>
 800264a:	1c72      	adds	r2, r6, #1
 800264c:	d003      	beq.n	8002656 <serial_init+0x7e>
 800264e:	2101      	movs	r1, #1
 8002650:	4630      	mov	r0, r6
 8002652:	f7ff ff4d 	bl	80024f0 <pin_mode>
 8002656:	1c6b      	adds	r3, r5, #1
 8002658:	d003      	beq.n	8002662 <serial_init+0x8a>
 800265a:	2101      	movs	r1, #1
 800265c:	4628      	mov	r0, r5
 800265e:	f7ff ff47 	bl	80024f0 <pin_mode>
 8002662:	f44f 5316 	mov.w	r3, #9600	; 0x2580
 8002666:	60a3      	str	r3, [r4, #8]
 8002668:	2300      	movs	r3, #0
 800266a:	60e3      	str	r3, [r4, #12]
 800266c:	6123      	str	r3, [r4, #16]
 800266e:	6163      	str	r3, [r4, #20]
 8002670:	61e3      	str	r3, [r4, #28]
 8002672:	8326      	strh	r6, [r4, #24]
 8002674:	8365      	strh	r5, [r4, #26]
 8002676:	4620      	mov	r0, r4
 8002678:	f7ff ff78 	bl	800256c <init_uart>
 800267c:	6822      	ldr	r2, [r4, #0]
 800267e:	4b25      	ldr	r3, [pc, #148]	; (8002714 <serial_init+0x13c>)
 8002680:	429a      	cmp	r2, r3
 8002682:	d10f      	bne.n	80026a4 <serial_init+0xcc>
 8002684:	4b24      	ldr	r3, [pc, #144]	; (8002718 <serial_init+0x140>)
 8002686:	2201      	movs	r2, #1
 8002688:	601a      	str	r2, [r3, #0]
 800268a:	4b24      	ldr	r3, [pc, #144]	; (800271c <serial_init+0x144>)
 800268c:	f104 0520 	add.w	r5, r4, #32
 8002690:	6820      	ldr	r0, [r4, #0]
 8002692:	6861      	ldr	r1, [r4, #4]
 8002694:	461a      	mov	r2, r3
 8002696:	c203      	stmia	r2!, {r0, r1}
 8002698:	3408      	adds	r4, #8
 800269a:	42ac      	cmp	r4, r5
 800269c:	4613      	mov	r3, r2
 800269e:	d1f7      	bne.n	8002690 <serial_init+0xb8>
 80026a0:	6820      	ldr	r0, [r4, #0]
 80026a2:	6010      	str	r0, [r2, #0]
 80026a4:	b005      	add	sp, #20
 80026a6:	bdf0      	pop	{r4, r5, r6, r7, pc}
 80026a8:	4b1a      	ldr	r3, [pc, #104]	; (8002714 <serial_init+0x13c>)
 80026aa:	4298      	cmp	r0, r3
 80026ac:	d114      	bne.n	80026d8 <serial_init+0x100>
 80026ae:	f503 33e6 	add.w	r3, r3, #117760	; 0x1cc00
 80026b2:	691a      	ldr	r2, [r3, #16]
 80026b4:	f442 3200 	orr.w	r2, r2, #131072	; 0x20000
 80026b8:	611a      	str	r2, [r3, #16]
 80026ba:	691a      	ldr	r2, [r3, #16]
 80026bc:	f422 3200 	bic.w	r2, r2, #131072	; 0x20000
 80026c0:	611a      	str	r2, [r3, #16]
 80026c2:	69da      	ldr	r2, [r3, #28]
 80026c4:	f442 3200 	orr.w	r2, r2, #131072	; 0x20000
 80026c8:	61da      	str	r2, [r3, #28]
 80026ca:	69db      	ldr	r3, [r3, #28]
 80026cc:	f403 3300 	and.w	r3, r3, #131072	; 0x20000
 80026d0:	9302      	str	r3, [sp, #8]
 80026d2:	9b02      	ldr	r3, [sp, #8]
 80026d4:	2301      	movs	r3, #1
 80026d6:	e7af      	b.n	8002638 <serial_init+0x60>
 80026d8:	4b11      	ldr	r3, [pc, #68]	; (8002720 <serial_init+0x148>)
 80026da:	4298      	cmp	r0, r3
 80026dc:	d1ad      	bne.n	800263a <serial_init+0x62>
 80026de:	f503 33e4 	add.w	r3, r3, #116736	; 0x1c800
 80026e2:	691a      	ldr	r2, [r3, #16]
 80026e4:	f442 2280 	orr.w	r2, r2, #262144	; 0x40000
 80026e8:	611a      	str	r2, [r3, #16]
 80026ea:	691a      	ldr	r2, [r3, #16]
 80026ec:	f422 2280 	bic.w	r2, r2, #262144	; 0x40000
 80026f0:	611a      	str	r2, [r3, #16]
 80026f2:	69da      	ldr	r2, [r3, #28]
 80026f4:	f442 2280 	orr.w	r2, r2, #262144	; 0x40000
 80026f8:	61da      	str	r2, [r3, #28]
 80026fa:	69db      	ldr	r3, [r3, #28]
 80026fc:	f403 2380 	and.w	r3, r3, #262144	; 0x40000
 8002700:	9303      	str	r3, [sp, #12]
 8002702:	9b03      	ldr	r3, [sp, #12]
 8002704:	2302      	movs	r3, #2
 8002706:	e797      	b.n	8002638 <serial_init+0x60>
 8002708:	080065dc 	.word	0x080065dc
 800270c:	08006594 	.word	0x08006594
 8002710:	40013800 	.word	0x40013800
 8002714:	40004400 	.word	0x40004400
 8002718:	20000df4 	.word	0x20000df4
 800271c:	20001a60 	.word	0x20001a60
 8002720:	40004800 	.word	0x40004800

08002724 <serial_baud>:
 8002724:	6081      	str	r1, [r0, #8]
 8002726:	f7ff bf21 	b.w	800256c <init_uart>
	...

0800272c <serial_irq_handler>:
 800272c:	4b03      	ldr	r3, [pc, #12]	; (800273c <serial_irq_handler+0x10>)
 800272e:	6019      	str	r1, [r3, #0]
 8002730:	6841      	ldr	r1, [r0, #4]
 8002732:	4b03      	ldr	r3, [pc, #12]	; (8002740 <serial_irq_handler+0x14>)
 8002734:	f843 2021 	str.w	r2, [r3, r1, lsl #2]
 8002738:	4770      	bx	lr
 800273a:	bf00      	nop
 800273c:	20000ddc 	.word	0x20000ddc
 8002740:	20000de0 	.word	0x20000de0

08002744 <serial_readable>:
 8002744:	6842      	ldr	r2, [r0, #4]
 8002746:	2370      	movs	r3, #112	; 0x70
 8002748:	4353      	muls	r3, r2
 800274a:	4a03      	ldr	r2, [pc, #12]	; (8002758 <serial_readable+0x14>)
 800274c:	58d3      	ldr	r3, [r2, r3]
 800274e:	69d8      	ldr	r0, [r3, #28]
 8002750:	f3c0 1040 	ubfx	r0, r0, #5, #1
 8002754:	4770      	bx	lr
 8002756:	bf00      	nop
 8002758:	20000df8 	.word	0x20000df8

0800275c <serial_getc>:
 800275c:	b510      	push	{r4, lr}
 800275e:	6844      	ldr	r4, [r0, #4]
 8002760:	4601      	mov	r1, r0
 8002762:	4608      	mov	r0, r1
 8002764:	f7ff ffee 	bl	8002744 <serial_readable>
 8002768:	2800      	cmp	r0, #0
 800276a:	d0fa      	beq.n	8002762 <serial_getc+0x6>
 800276c:	2370      	movs	r3, #112	; 0x70
 800276e:	4a05      	ldr	r2, [pc, #20]	; (8002784 <serial_getc+0x28>)
 8002770:	68c9      	ldr	r1, [r1, #12]
 8002772:	4363      	muls	r3, r4
 8002774:	58d3      	ldr	r3, [r2, r3]
 8002776:	8c98      	ldrh	r0, [r3, #36]	; 0x24
 8002778:	b909      	cbnz	r1, 800277e <serial_getc+0x22>
 800277a:	b2c0      	uxtb	r0, r0
 800277c:	bd10      	pop	{r4, pc}
 800277e:	f3c0 0008 	ubfx	r0, r0, #0, #9
 8002782:	bd10      	pop	{r4, pc}
 8002784:	20000df8 	.word	0x20000df8

08002788 <serial_writable>:
 8002788:	6842      	ldr	r2, [r0, #4]
 800278a:	2370      	movs	r3, #112	; 0x70
 800278c:	4353      	muls	r3, r2
 800278e:	4a03      	ldr	r2, [pc, #12]	; (800279c <serial_writable+0x14>)
 8002790:	58d3      	ldr	r3, [r2, r3]
 8002792:	69d8      	ldr	r0, [r3, #28]
 8002794:	f3c0 10c0 	ubfx	r0, r0, #7, #1
 8002798:	4770      	bx	lr
 800279a:	bf00      	nop
 800279c:	20000df8 	.word	0x20000df8

080027a0 <serial_putc>:
 80027a0:	b538      	push	{r3, r4, r5, lr}
 80027a2:	6845      	ldr	r5, [r0, #4]
 80027a4:	4604      	mov	r4, r0
 80027a6:	4620      	mov	r0, r4
 80027a8:	f7ff ffee 	bl	8002788 <serial_writable>
 80027ac:	2800      	cmp	r0, #0
 80027ae:	d0fa      	beq.n	80027a6 <serial_putc+0x6>
 80027b0:	2370      	movs	r3, #112	; 0x70
 80027b2:	4a05      	ldr	r2, [pc, #20]	; (80027c8 <serial_putc+0x28>)
 80027b4:	68e0      	ldr	r0, [r4, #12]
 80027b6:	436b      	muls	r3, r5
 80027b8:	58d3      	ldr	r3, [r2, r3]
 80027ba:	b910      	cbnz	r0, 80027c2 <serial_putc+0x22>
 80027bc:	b2c9      	uxtb	r1, r1
 80027be:	8519      	strh	r1, [r3, #40]	; 0x28
 80027c0:	bd38      	pop	{r3, r4, r5, pc}
 80027c2:	f3c1 0108 	ubfx	r1, r1, #0, #9
 80027c6:	e7fa      	b.n	80027be <serial_putc+0x1e>
 80027c8:	20000df8 	.word	0x20000df8

080027cc <mbed_sdk_init>:
 80027cc:	b508      	push	{r3, lr}
 80027ce:	f000 f805 	bl	80027dc <SystemCoreClockUpdate>
 80027d2:	e8bd 4008 	ldmia.w	sp!, {r3, lr}
 80027d6:	f000 bc91 	b.w	80030fc <HAL_Init>
	...

080027dc <SystemCoreClockUpdate>:
 80027dc:	4a14      	ldr	r2, [pc, #80]	; (8002830 <SystemCoreClockUpdate+0x54>)
 80027de:	4915      	ldr	r1, [pc, #84]	; (8002834 <SystemCoreClockUpdate+0x58>)
 80027e0:	6853      	ldr	r3, [r2, #4]
 80027e2:	f003 030c 	and.w	r3, r3, #12
 80027e6:	2b04      	cmp	r3, #4
 80027e8:	b510      	push	{r4, lr}
 80027ea:	d001      	beq.n	80027f0 <SystemCoreClockUpdate+0x14>
 80027ec:	2b08      	cmp	r3, #8
 80027ee:	d00a      	beq.n	8002806 <SystemCoreClockUpdate+0x2a>
 80027f0:	4b11      	ldr	r3, [pc, #68]	; (8002838 <SystemCoreClockUpdate+0x5c>)
 80027f2:	600b      	str	r3, [r1, #0]
 80027f4:	6853      	ldr	r3, [r2, #4]
 80027f6:	4a11      	ldr	r2, [pc, #68]	; (800283c <SystemCoreClockUpdate+0x60>)
 80027f8:	f3c3 1303 	ubfx	r3, r3, #4, #4
 80027fc:	5cd2      	ldrb	r2, [r2, r3]
 80027fe:	680b      	ldr	r3, [r1, #0]
 8002800:	40d3      	lsrs	r3, r2
 8002802:	600b      	str	r3, [r1, #0]
 8002804:	bd10      	pop	{r4, pc}
 8002806:	6853      	ldr	r3, [r2, #4]
 8002808:	6850      	ldr	r0, [r2, #4]
 800280a:	03c0      	lsls	r0, r0, #15
 800280c:	bf49      	itett	mi
 800280e:	6ad0      	ldrmi	r0, [r2, #44]	; 0x2c
 8002810:	480b      	ldrpl	r0, [pc, #44]	; (8002840 <SystemCoreClockUpdate+0x64>)
 8002812:	4c09      	ldrmi	r4, [pc, #36]	; (8002838 <SystemCoreClockUpdate+0x5c>)
 8002814:	f000 000f 	andmi.w	r0, r0, #15
 8002818:	f3c3 4383 	ubfx	r3, r3, #18, #4
 800281c:	bf48      	it	mi
 800281e:	3001      	addmi	r0, #1
 8002820:	f103 0302 	add.w	r3, r3, #2
 8002824:	bf48      	it	mi
 8002826:	fbb4 f0f0 	udivmi	r0, r4, r0
 800282a:	4343      	muls	r3, r0
 800282c:	e7e1      	b.n	80027f2 <SystemCoreClockUpdate+0x16>
 800282e:	bf00      	nop
 8002830:	40021000 	.word	0x40021000
 8002834:	200001a4 	.word	0x200001a4
 8002838:	007a1200 	.word	0x007a1200
 800283c:	08006624 	.word	0x08006624
 8002840:	003d0900 	.word	0x003d0900

08002844 <SetSysClock_PLL_HSI>:
 8002844:	b530      	push	{r4, r5, lr}
 8002846:	b091      	sub	sp, #68	; 0x44
 8002848:	2303      	movs	r3, #3
 800284a:	9306      	str	r3, [sp, #24]
 800284c:	2301      	movs	r3, #1
 800284e:	930a      	str	r3, [sp, #40]	; 0x28
 8002850:	2310      	movs	r3, #16
 8002852:	2400      	movs	r4, #0
 8002854:	930b      	str	r3, [sp, #44]	; 0x2c
 8002856:	2502      	movs	r5, #2
 8002858:	f44f 1360 	mov.w	r3, #3670016	; 0x380000
 800285c:	a806      	add	r0, sp, #24
 800285e:	9407      	str	r4, [sp, #28]
 8002860:	950d      	str	r5, [sp, #52]	; 0x34
 8002862:	940e      	str	r4, [sp, #56]	; 0x38
 8002864:	930f      	str	r3, [sp, #60]	; 0x3c
 8002866:	f000 f893 	bl	8002990 <HAL_RCC_OscConfig>
 800286a:	b980      	cbnz	r0, 800288e <SetSysClock_PLL_HSI+0x4a>
 800286c:	230f      	movs	r3, #15
 800286e:	9301      	str	r3, [sp, #4]
 8002870:	9003      	str	r0, [sp, #12]
 8002872:	f44f 6380 	mov.w	r3, #1024	; 0x400
 8002876:	9005      	str	r0, [sp, #20]
 8002878:	4629      	mov	r1, r5
 800287a:	a801      	add	r0, sp, #4
 800287c:	9502      	str	r5, [sp, #8]
 800287e:	9304      	str	r3, [sp, #16]
 8002880:	f000 fb2a 	bl	8002ed8 <HAL_RCC_ClockConfig>
 8002884:	fab0 f080 	clz	r0, r0
 8002888:	0940      	lsrs	r0, r0, #5
 800288a:	b011      	add	sp, #68	; 0x44
 800288c:	bd30      	pop	{r4, r5, pc}
 800288e:	4620      	mov	r0, r4
 8002890:	e7fb      	b.n	800288a <SetSysClock_PLL_HSI+0x46>

08002892 <SetSysClock>:
 8002892:	b508      	push	{r3, lr}
 8002894:	f7ff ffd6 	bl	8002844 <SetSysClock_PLL_HSI>
 8002898:	b900      	cbnz	r0, 800289c <SetSysClock+0xa>
 800289a:	e7fe      	b.n	800289a <SetSysClock+0x8>
 800289c:	bd08      	pop	{r3, pc}
	...

080028a0 <SystemInit>:
 80028a0:	4a1d      	ldr	r2, [pc, #116]	; (8002918 <SystemInit+0x78>)
 80028a2:	f8d2 3088 	ldr.w	r3, [r2, #136]	; 0x88
 80028a6:	b510      	push	{r4, lr}
 80028a8:	f443 0370 	orr.w	r3, r3, #15728640	; 0xf00000
 80028ac:	4c1b      	ldr	r4, [pc, #108]	; (800291c <SystemInit+0x7c>)
 80028ae:	f8c2 3088 	str.w	r3, [r2, #136]	; 0x88
 80028b2:	6823      	ldr	r3, [r4, #0]
 80028b4:	f043 0301 	orr.w	r3, r3, #1
 80028b8:	6023      	str	r3, [r4, #0]
 80028ba:	6861      	ldr	r1, [r4, #4]
 80028bc:	4b18      	ldr	r3, [pc, #96]	; (8002920 <SystemInit+0x80>)
 80028be:	400b      	ands	r3, r1
 80028c0:	6063      	str	r3, [r4, #4]
 80028c2:	6823      	ldr	r3, [r4, #0]
 80028c4:	f023 7384 	bic.w	r3, r3, #17301504	; 0x1080000
 80028c8:	f423 3380 	bic.w	r3, r3, #65536	; 0x10000
 80028cc:	6023      	str	r3, [r4, #0]
 80028ce:	6823      	ldr	r3, [r4, #0]
 80028d0:	f423 2380 	bic.w	r3, r3, #262144	; 0x40000
 80028d4:	6023      	str	r3, [r4, #0]
 80028d6:	6863      	ldr	r3, [r4, #4]
 80028d8:	f423 03fe 	bic.w	r3, r3, #8323072	; 0x7f0000
 80028dc:	6063      	str	r3, [r4, #4]
 80028de:	6ae3      	ldr	r3, [r4, #44]	; 0x2c
 80028e0:	f023 030f 	bic.w	r3, r3, #15
 80028e4:	62e3      	str	r3, [r4, #44]	; 0x2c
 80028e6:	6b21      	ldr	r1, [r4, #48]	; 0x30
 80028e8:	4b0e      	ldr	r3, [pc, #56]	; (8002924 <SystemInit+0x84>)
 80028ea:	400b      	ands	r3, r1
 80028ec:	6323      	str	r3, [r4, #48]	; 0x30
 80028ee:	2300      	movs	r3, #0
 80028f0:	60a3      	str	r3, [r4, #8]
 80028f2:	f04f 6300 	mov.w	r3, #134217728	; 0x8000000
 80028f6:	6093      	str	r3, [r2, #8]
 80028f8:	4b0b      	ldr	r3, [pc, #44]	; (8002928 <SystemInit+0x88>)
 80028fa:	4a0c      	ldr	r2, [pc, #48]	; (800292c <SystemInit+0x8c>)
 80028fc:	601a      	str	r2, [r3, #0]
 80028fe:	f000 fbfd 	bl	80030fc <HAL_Init>
 8002902:	f7ff ffc6 	bl	8002892 <SetSysClock>
 8002906:	6923      	ldr	r3, [r4, #16]
 8002908:	f043 0301 	orr.w	r3, r3, #1
 800290c:	6123      	str	r3, [r4, #16]
 800290e:	6923      	ldr	r3, [r4, #16]
 8002910:	f023 0301 	bic.w	r3, r3, #1
 8002914:	6123      	str	r3, [r4, #16]
 8002916:	bd10      	pop	{r4, pc}
 8002918:	e000ed00 	.word	0xe000ed00
 800291c:	40021000 	.word	0x40021000
 8002920:	f87fc00c 	.word	0xf87fc00c
 8002924:	ff00fccc 	.word	0xff00fccc
 8002928:	200001a4 	.word	0x200001a4
 800292c:	007a1200 	.word	0x007a1200

08002930 <__NVIC_SetVector>:
 8002930:	b530      	push	{r4, r5, lr}
 8002932:	4c0c      	ldr	r4, [pc, #48]	; (8002964 <__NVIC_SetVector+0x34>)
 8002934:	68a2      	ldr	r2, [r4, #8]
 8002936:	68a4      	ldr	r4, [r4, #8]
 8002938:	f1b4 6f00 	cmp.w	r4, #134217728	; 0x8000000
 800293c:	4613      	mov	r3, r2
 800293e:	d10c      	bne.n	800295a <__NVIC_SetVector+0x2a>
 8002940:	1f13      	subs	r3, r2, #4
 8002942:	4c09      	ldr	r4, [pc, #36]	; (8002968 <__NVIC_SetVector+0x38>)
 8002944:	4a09      	ldr	r2, [pc, #36]	; (800296c <__NVIC_SetVector+0x3c>)
 8002946:	f853 5f04 	ldr.w	r5, [r3, #4]!
 800294a:	f842 5f04 	str.w	r5, [r2, #4]!
 800294e:	42a2      	cmp	r2, r4
 8002950:	d1f9      	bne.n	8002946 <__NVIC_SetVector+0x16>
 8002952:	4a04      	ldr	r2, [pc, #16]	; (8002964 <__NVIC_SetVector+0x34>)
 8002954:	f04f 5300 	mov.w	r3, #536870912	; 0x20000000
 8002958:	6093      	str	r3, [r2, #8]
 800295a:	3010      	adds	r0, #16
 800295c:	f843 1020 	str.w	r1, [r3, r0, lsl #2]
 8002960:	bd30      	pop	{r4, r5, pc}
 8002962:	bf00      	nop
 8002964:	e000ed00 	.word	0xe000ed00
 8002968:	20000184 	.word	0x20000184
 800296c:	1ffffffc 	.word	0x1ffffffc

08002970 <HAL_PWR_EnterSLEEPMode>:
 8002970:	4a06      	ldr	r2, [pc, #24]	; (800298c <HAL_PWR_EnterSLEEPMode+0x1c>)
 8002972:	6913      	ldr	r3, [r2, #16]
 8002974:	2901      	cmp	r1, #1
 8002976:	f023 0304 	bic.w	r3, r3, #4
 800297a:	6113      	str	r3, [r2, #16]
 800297c:	d101      	bne.n	8002982 <HAL_PWR_EnterSLEEPMode+0x12>
 800297e:	bf30      	wfi
 8002980:	4770      	bx	lr
 8002982:	bf40      	sev
 8002984:	bf20      	wfe
 8002986:	bf20      	wfe
 8002988:	4770      	bx	lr
 800298a:	bf00      	nop
 800298c:	e000ed00 	.word	0xe000ed00

08002990 <HAL_RCC_OscConfig>:
 8002990:	6803      	ldr	r3, [r0, #0]
 8002992:	07da      	lsls	r2, r3, #31
 8002994:	e92d 47f3 	stmdb	sp!, {r0, r1, r4, r5, r6, r7, r8, r9, r10, lr}
 8002998:	4605      	mov	r5, r0
 800299a:	d411      	bmi.n	80029c0 <HAL_RCC_OscConfig+0x30>
 800299c:	682b      	ldr	r3, [r5, #0]
 800299e:	079b      	lsls	r3, r3, #30
 80029a0:	f100 8088 	bmi.w	8002ab4 <HAL_RCC_OscConfig+0x124>
 80029a4:	682b      	ldr	r3, [r5, #0]
 80029a6:	071c      	lsls	r4, r3, #28
 80029a8:	f100 80f8 	bmi.w	8002b9c <HAL_RCC_OscConfig+0x20c>
 80029ac:	682b      	ldr	r3, [r5, #0]
 80029ae:	0758      	lsls	r0, r3, #29
 80029b0:	f100 8141 	bmi.w	8002c36 <HAL_RCC_OscConfig+0x2a6>
 80029b4:	69ea      	ldr	r2, [r5, #28]
 80029b6:	2a00      	cmp	r2, #0
 80029b8:	f040 81d7 	bne.w	8002d6a <HAL_RCC_OscConfig+0x3da>
 80029bc:	2000      	movs	r0, #0
 80029be:	e021      	b.n	8002a04 <HAL_RCC_OscConfig+0x74>
 80029c0:	4cba      	ldr	r4, [pc, #744]	; (8002cac <HAL_RCC_OscConfig+0x31c>)
 80029c2:	6863      	ldr	r3, [r4, #4]
 80029c4:	f003 030c 	and.w	r3, r3, #12
 80029c8:	2b04      	cmp	r3, #4
 80029ca:	d007      	beq.n	80029dc <HAL_RCC_OscConfig+0x4c>
 80029cc:	6863      	ldr	r3, [r4, #4]
 80029ce:	f003 030c 	and.w	r3, r3, #12
 80029d2:	2b08      	cmp	r3, #8
 80029d4:	d119      	bne.n	8002a0a <HAL_RCC_OscConfig+0x7a>
 80029d6:	6863      	ldr	r3, [r4, #4]
 80029d8:	03df      	lsls	r7, r3, #15
 80029da:	d516      	bpl.n	8002a0a <HAL_RCC_OscConfig+0x7a>
 80029dc:	f44f 3300 	mov.w	r3, #131072	; 0x20000
 80029e0:	fa93 f2a3 	rbit	r2, r3
 80029e4:	6821      	ldr	r1, [r4, #0]
 80029e6:	fa93 f3a3 	rbit	r3, r3
 80029ea:	fab3 f383 	clz	r3, r3
 80029ee:	f003 031f 	and.w	r3, r3, #31
 80029f2:	2201      	movs	r2, #1
 80029f4:	fa02 f303 	lsl.w	r3, r2, r3
 80029f8:	420b      	tst	r3, r1
 80029fa:	d0cf      	beq.n	800299c <HAL_RCC_OscConfig+0xc>
 80029fc:	686b      	ldr	r3, [r5, #4]
 80029fe:	2b00      	cmp	r3, #0
 8002a00:	d1cc      	bne.n	800299c <HAL_RCC_OscConfig+0xc>
 8002a02:	2001      	movs	r0, #1
 8002a04:	b002      	add	sp, #8
 8002a06:	e8bd 87f0 	ldmia.w	sp!, {r4, r5, r6, r7, r8, r9, r10, pc}
 8002a0a:	686a      	ldr	r2, [r5, #4]
 8002a0c:	f5b2 3f80 	cmp.w	r2, #65536	; 0x10000
 8002a10:	d125      	bne.n	8002a5e <HAL_RCC_OscConfig+0xce>
 8002a12:	6823      	ldr	r3, [r4, #0]
 8002a14:	f443 3380 	orr.w	r3, r3, #65536	; 0x10000
 8002a18:	6023      	str	r3, [r4, #0]
 8002a1a:	6ae3      	ldr	r3, [r4, #44]	; 0x2c
 8002a1c:	68a9      	ldr	r1, [r5, #8]
 8002a1e:	f023 030f 	bic.w	r3, r3, #15
 8002a22:	430b      	orrs	r3, r1
 8002a24:	62e3      	str	r3, [r4, #44]	; 0x2c
 8002a26:	b352      	cbz	r2, 8002a7e <HAL_RCC_OscConfig+0xee>
 8002a28:	f000 fb82 	bl	8003130 <HAL_GetTick>
 8002a2c:	f44f 3600 	mov.w	r6, #131072	; 0x20000
 8002a30:	4680      	mov	r8, r0
 8002a32:	2701      	movs	r7, #1
 8002a34:	fa96 f3a6 	rbit	r3, r6
 8002a38:	6822      	ldr	r2, [r4, #0]
 8002a3a:	fa96 f3a6 	rbit	r3, r6
 8002a3e:	fab3 f383 	clz	r3, r3
 8002a42:	f003 031f 	and.w	r3, r3, #31
 8002a46:	fa07 f303 	lsl.w	r3, r7, r3
 8002a4a:	4213      	tst	r3, r2
 8002a4c:	d1a6      	bne.n	800299c <HAL_RCC_OscConfig+0xc>
 8002a4e:	f000 fb6f 	bl	8003130 <HAL_GetTick>
 8002a52:	eba0 0008 	sub.w	r0, r0, r8
 8002a56:	2864      	cmp	r0, #100	; 0x64
 8002a58:	d9ec      	bls.n	8002a34 <HAL_RCC_OscConfig+0xa4>
 8002a5a:	2003      	movs	r0, #3
 8002a5c:	e7d2      	b.n	8002a04 <HAL_RCC_OscConfig+0x74>
 8002a5e:	6823      	ldr	r3, [r4, #0]
 8002a60:	b932      	cbnz	r2, 8002a70 <HAL_RCC_OscConfig+0xe0>
 8002a62:	f423 3380 	bic.w	r3, r3, #65536	; 0x10000
 8002a66:	6023      	str	r3, [r4, #0]
 8002a68:	6823      	ldr	r3, [r4, #0]
 8002a6a:	f423 2380 	bic.w	r3, r3, #262144	; 0x40000
 8002a6e:	e7d3      	b.n	8002a18 <HAL_RCC_OscConfig+0x88>
 8002a70:	f5b2 2fa0 	cmp.w	r2, #327680	; 0x50000
 8002a74:	d1f5      	bne.n	8002a62 <HAL_RCC_OscConfig+0xd2>
 8002a76:	f443 2380 	orr.w	r3, r3, #262144	; 0x40000
 8002a7a:	6023      	str	r3, [r4, #0]
 8002a7c:	e7c9      	b.n	8002a12 <HAL_RCC_OscConfig+0x82>
 8002a7e:	f000 fb57 	bl	8003130 <HAL_GetTick>
 8002a82:	f44f 3600 	mov.w	r6, #131072	; 0x20000
 8002a86:	4680      	mov	r8, r0
 8002a88:	2701      	movs	r7, #1
 8002a8a:	fa96 f3a6 	rbit	r3, r6
 8002a8e:	6822      	ldr	r2, [r4, #0]
 8002a90:	fa96 f3a6 	rbit	r3, r6
 8002a94:	fab3 f383 	clz	r3, r3
 8002a98:	f003 031f 	and.w	r3, r3, #31
 8002a9c:	fa07 f303 	lsl.w	r3, r7, r3
 8002aa0:	4213      	tst	r3, r2
 8002aa2:	f43f af7b 	beq.w	800299c <HAL_RCC_OscConfig+0xc>
 8002aa6:	f000 fb43 	bl	8003130 <HAL_GetTick>
 8002aaa:	eba0 0008 	sub.w	r0, r0, r8
 8002aae:	2864      	cmp	r0, #100	; 0x64
 8002ab0:	d9eb      	bls.n	8002a8a <HAL_RCC_OscConfig+0xfa>
 8002ab2:	e7d2      	b.n	8002a5a <HAL_RCC_OscConfig+0xca>
 8002ab4:	4c7d      	ldr	r4, [pc, #500]	; (8002cac <HAL_RCC_OscConfig+0x31c>)
 8002ab6:	6863      	ldr	r3, [r4, #4]
 8002ab8:	f013 0f0c 	tst.w	r3, #12
 8002abc:	d007      	beq.n	8002ace <HAL_RCC_OscConfig+0x13e>
 8002abe:	6863      	ldr	r3, [r4, #4]
 8002ac0:	f003 030c 	and.w	r3, r3, #12
 8002ac4:	2b08      	cmp	r3, #8
 8002ac6:	d121      	bne.n	8002b0c <HAL_RCC_OscConfig+0x17c>
 8002ac8:	6863      	ldr	r3, [r4, #4]
 8002aca:	03de      	lsls	r6, r3, #15
 8002acc:	d41e      	bmi.n	8002b0c <HAL_RCC_OscConfig+0x17c>
 8002ace:	2302      	movs	r3, #2
 8002ad0:	fa93 f2a3 	rbit	r2, r3
 8002ad4:	6821      	ldr	r1, [r4, #0]
 8002ad6:	fa93 f3a3 	rbit	r3, r3
 8002ada:	fab3 f383 	clz	r3, r3
 8002ade:	f003 031f 	and.w	r3, r3, #31
 8002ae2:	2201      	movs	r2, #1
 8002ae4:	fa02 f303 	lsl.w	r3, r2, r3
 8002ae8:	420b      	tst	r3, r1
 8002aea:	d002      	beq.n	8002af2 <HAL_RCC_OscConfig+0x162>
 8002aec:	692b      	ldr	r3, [r5, #16]
 8002aee:	4293      	cmp	r3, r2
 8002af0:	d187      	bne.n	8002a02 <HAL_RCC_OscConfig+0x72>
 8002af2:	6821      	ldr	r1, [r4, #0]
 8002af4:	23f8      	movs	r3, #248	; 0xf8
 8002af6:	fa93 f3a3 	rbit	r3, r3
 8002afa:	fab3 f283 	clz	r2, r3
 8002afe:	696b      	ldr	r3, [r5, #20]
 8002b00:	4093      	lsls	r3, r2
 8002b02:	f021 02f8 	bic.w	r2, r1, #248	; 0xf8
 8002b06:	4313      	orrs	r3, r2
 8002b08:	6023      	str	r3, [r4, #0]
 8002b0a:	e74b      	b.n	80029a4 <HAL_RCC_OscConfig+0x14>
 8002b0c:	692a      	ldr	r2, [r5, #16]
 8002b0e:	2601      	movs	r6, #1
 8002b10:	b30a      	cbz	r2, 8002b56 <HAL_RCC_OscConfig+0x1c6>
 8002b12:	fa96 f3a6 	rbit	r3, r6
 8002b16:	fab3 f383 	clz	r3, r3
 8002b1a:	f103 5384 	add.w	r3, r3, #276824064	; 0x10800000
 8002b1e:	f503 1384 	add.w	r3, r3, #1081344	; 0x108000
 8002b22:	009b      	lsls	r3, r3, #2
 8002b24:	2702      	movs	r7, #2
 8002b26:	601e      	str	r6, [r3, #0]
 8002b28:	f000 fb02 	bl	8003130 <HAL_GetTick>
 8002b2c:	4680      	mov	r8, r0
 8002b2e:	fa97 f3a7 	rbit	r3, r7
 8002b32:	6822      	ldr	r2, [r4, #0]
 8002b34:	fa97 f3a7 	rbit	r3, r7
 8002b38:	fab3 f383 	clz	r3, r3
 8002b3c:	f003 031f 	and.w	r3, r3, #31
 8002b40:	fa06 f303 	lsl.w	r3, r6, r3
 8002b44:	4213      	tst	r3, r2
 8002b46:	d1d4      	bne.n	8002af2 <HAL_RCC_OscConfig+0x162>
 8002b48:	f000 faf2 	bl	8003130 <HAL_GetTick>
 8002b4c:	eba0 0008 	sub.w	r0, r0, r8
 8002b50:	2802      	cmp	r0, #2
 8002b52:	d9ec      	bls.n	8002b2e <HAL_RCC_OscConfig+0x19e>
 8002b54:	e781      	b.n	8002a5a <HAL_RCC_OscConfig+0xca>
 8002b56:	fa96 f3a6 	rbit	r3, r6
 8002b5a:	fab3 f383 	clz	r3, r3
 8002b5e:	f103 5384 	add.w	r3, r3, #276824064	; 0x10800000
 8002b62:	f503 1384 	add.w	r3, r3, #1081344	; 0x108000
 8002b66:	009b      	lsls	r3, r3, #2
 8002b68:	2702      	movs	r7, #2
 8002b6a:	601a      	str	r2, [r3, #0]
 8002b6c:	f000 fae0 	bl	8003130 <HAL_GetTick>
 8002b70:	4680      	mov	r8, r0
 8002b72:	fa97 f3a7 	rbit	r3, r7
 8002b76:	6822      	ldr	r2, [r4, #0]
 8002b78:	fa97 f3a7 	rbit	r3, r7
 8002b7c:	fab3 f383 	clz	r3, r3
 8002b80:	f003 031f 	and.w	r3, r3, #31
 8002b84:	fa06 f303 	lsl.w	r3, r6, r3
 8002b88:	4213      	tst	r3, r2
 8002b8a:	f43f af0b 	beq.w	80029a4 <HAL_RCC_OscConfig+0x14>
 8002b8e:	f000 facf 	bl	8003130 <HAL_GetTick>
 8002b92:	eba0 0008 	sub.w	r0, r0, r8
 8002b96:	2802      	cmp	r0, #2
 8002b98:	d9eb      	bls.n	8002b72 <HAL_RCC_OscConfig+0x1e2>
 8002b9a:	e75e      	b.n	8002a5a <HAL_RCC_OscConfig+0xca>
 8002b9c:	69aa      	ldr	r2, [r5, #24]
 8002b9e:	4e43      	ldr	r6, [pc, #268]	; (8002cac <HAL_RCC_OscConfig+0x31c>)
 8002ba0:	4943      	ldr	r1, [pc, #268]	; (8002cb0 <HAL_RCC_OscConfig+0x320>)
 8002ba2:	2401      	movs	r4, #1
 8002ba4:	b31a      	cbz	r2, 8002bee <HAL_RCC_OscConfig+0x25e>
 8002ba6:	fa94 f3a4 	rbit	r3, r4
 8002baa:	fab3 f383 	clz	r3, r3
 8002bae:	440b      	add	r3, r1
 8002bb0:	009b      	lsls	r3, r3, #2
 8002bb2:	2702      	movs	r7, #2
 8002bb4:	601c      	str	r4, [r3, #0]
 8002bb6:	f000 fabb 	bl	8003130 <HAL_GetTick>
 8002bba:	4680      	mov	r8, r0
 8002bbc:	fa97 f3a7 	rbit	r3, r7
 8002bc0:	fa97 f3a7 	rbit	r3, r7
 8002bc4:	fa97 f3a7 	rbit	r3, r7
 8002bc8:	6a72      	ldr	r2, [r6, #36]	; 0x24
 8002bca:	fa97 f3a7 	rbit	r3, r7
 8002bce:	fab3 f383 	clz	r3, r3
 8002bd2:	f003 031f 	and.w	r3, r3, #31
 8002bd6:	fa04 f303 	lsl.w	r3, r4, r3
 8002bda:	4213      	tst	r3, r2
 8002bdc:	f47f aee6 	bne.w	80029ac <HAL_RCC_OscConfig+0x1c>
 8002be0:	f000 faa6 	bl	8003130 <HAL_GetTick>
 8002be4:	eba0 0008 	sub.w	r0, r0, r8
 8002be8:	2802      	cmp	r0, #2
 8002bea:	d9e7      	bls.n	8002bbc <HAL_RCC_OscConfig+0x22c>
 8002bec:	e735      	b.n	8002a5a <HAL_RCC_OscConfig+0xca>
 8002bee:	fa94 f3a4 	rbit	r3, r4
 8002bf2:	fab3 f383 	clz	r3, r3
 8002bf6:	440b      	add	r3, r1
 8002bf8:	009b      	lsls	r3, r3, #2
 8002bfa:	2702      	movs	r7, #2
 8002bfc:	601a      	str	r2, [r3, #0]
 8002bfe:	f000 fa97 	bl	8003130 <HAL_GetTick>
 8002c02:	4680      	mov	r8, r0
 8002c04:	fa97 f3a7 	rbit	r3, r7
 8002c08:	fa97 f3a7 	rbit	r3, r7
 8002c0c:	fa97 f3a7 	rbit	r3, r7
 8002c10:	6a72      	ldr	r2, [r6, #36]	; 0x24
 8002c12:	fa97 f3a7 	rbit	r3, r7
 8002c16:	fab3 f383 	clz	r3, r3
 8002c1a:	f003 031f 	and.w	r3, r3, #31
 8002c1e:	fa04 f303 	lsl.w	r3, r4, r3
 8002c22:	4213      	tst	r3, r2
 8002c24:	f43f aec2 	beq.w	80029ac <HAL_RCC_OscConfig+0x1c>
 8002c28:	f000 fa82 	bl	8003130 <HAL_GetTick>
 8002c2c:	eba0 0008 	sub.w	r0, r0, r8
 8002c30:	2802      	cmp	r0, #2
 8002c32:	d9e7      	bls.n	8002c04 <HAL_RCC_OscConfig+0x274>
 8002c34:	e711      	b.n	8002a5a <HAL_RCC_OscConfig+0xca>
 8002c36:	4c1d      	ldr	r4, [pc, #116]	; (8002cac <HAL_RCC_OscConfig+0x31c>)
 8002c38:	69e3      	ldr	r3, [r4, #28]
 8002c3a:	00d9      	lsls	r1, r3, #3
 8002c3c:	d434      	bmi.n	8002ca8 <HAL_RCC_OscConfig+0x318>
 8002c3e:	69e3      	ldr	r3, [r4, #28]
 8002c40:	f043 5380 	orr.w	r3, r3, #268435456	; 0x10000000
 8002c44:	61e3      	str	r3, [r4, #28]
 8002c46:	69e3      	ldr	r3, [r4, #28]
 8002c48:	f003 5380 	and.w	r3, r3, #268435456	; 0x10000000
 8002c4c:	9301      	str	r3, [sp, #4]
 8002c4e:	9b01      	ldr	r3, [sp, #4]
 8002c50:	2601      	movs	r6, #1
 8002c52:	4f18      	ldr	r7, [pc, #96]	; (8002cb4 <HAL_RCC_OscConfig+0x324>)
 8002c54:	683b      	ldr	r3, [r7, #0]
 8002c56:	05da      	lsls	r2, r3, #23
 8002c58:	d52e      	bpl.n	8002cb8 <HAL_RCC_OscConfig+0x328>
 8002c5a:	68eb      	ldr	r3, [r5, #12]
 8002c5c:	2b01      	cmp	r3, #1
 8002c5e:	d13c      	bne.n	8002cda <HAL_RCC_OscConfig+0x34a>
 8002c60:	6a23      	ldr	r3, [r4, #32]
 8002c62:	f043 0301 	orr.w	r3, r3, #1
 8002c66:	6223      	str	r3, [r4, #32]
 8002c68:	f000 fa62 	bl	8003130 <HAL_GetTick>
 8002c6c:	2702      	movs	r7, #2
 8002c6e:	4682      	mov	r10, r0
 8002c70:	46b9      	mov	r9, r7
 8002c72:	f04f 0801 	mov.w	r8, #1
 8002c76:	fa97 f3a7 	rbit	r3, r7
 8002c7a:	fa97 f3a7 	rbit	r3, r7
 8002c7e:	2b00      	cmp	r3, #0
 8002c80:	d06b      	beq.n	8002d5a <HAL_RCC_OscConfig+0x3ca>
 8002c82:	6a22      	ldr	r2, [r4, #32]
 8002c84:	fa99 f3a9 	rbit	r3, r9
 8002c88:	fab3 f383 	clz	r3, r3
 8002c8c:	f003 031f 	and.w	r3, r3, #31
 8002c90:	fa08 f303 	lsl.w	r3, r8, r3
 8002c94:	4213      	tst	r3, r2
 8002c96:	d057      	beq.n	8002d48 <HAL_RCC_OscConfig+0x3b8>
 8002c98:	2e00      	cmp	r6, #0
 8002c9a:	f43f ae8b 	beq.w	80029b4 <HAL_RCC_OscConfig+0x24>
 8002c9e:	69e3      	ldr	r3, [r4, #28]
 8002ca0:	f023 5380 	bic.w	r3, r3, #268435456	; 0x10000000
 8002ca4:	61e3      	str	r3, [r4, #28]
 8002ca6:	e685      	b.n	80029b4 <HAL_RCC_OscConfig+0x24>
 8002ca8:	2600      	movs	r6, #0
 8002caa:	e7d2      	b.n	8002c52 <HAL_RCC_OscConfig+0x2c2>
 8002cac:	40021000 	.word	0x40021000
 8002cb0:	10908120 	.word	0x10908120
 8002cb4:	40007000 	.word	0x40007000
 8002cb8:	683b      	ldr	r3, [r7, #0]
 8002cba:	f443 7380 	orr.w	r3, r3, #256	; 0x100
 8002cbe:	603b      	str	r3, [r7, #0]
 8002cc0:	f000 fa36 	bl	8003130 <HAL_GetTick>
 8002cc4:	4680      	mov	r8, r0
 8002cc6:	683b      	ldr	r3, [r7, #0]
 8002cc8:	05db      	lsls	r3, r3, #23
 8002cca:	d4c6      	bmi.n	8002c5a <HAL_RCC_OscConfig+0x2ca>
 8002ccc:	f000 fa30 	bl	8003130 <HAL_GetTick>
 8002cd0:	eba0 0008 	sub.w	r0, r0, r8
 8002cd4:	2864      	cmp	r0, #100	; 0x64
 8002cd6:	d9f6      	bls.n	8002cc6 <HAL_RCC_OscConfig+0x336>
 8002cd8:	e6bf      	b.n	8002a5a <HAL_RCC_OscConfig+0xca>
 8002cda:	bb3b      	cbnz	r3, 8002d2c <HAL_RCC_OscConfig+0x39c>
 8002cdc:	6a23      	ldr	r3, [r4, #32]
 8002cde:	f023 0301 	bic.w	r3, r3, #1
 8002ce2:	6223      	str	r3, [r4, #32]
 8002ce4:	6a23      	ldr	r3, [r4, #32]
 8002ce6:	f023 0304 	bic.w	r3, r3, #4
 8002cea:	6223      	str	r3, [r4, #32]
 8002cec:	f000 fa20 	bl	8003130 <HAL_GetTick>
 8002cf0:	2702      	movs	r7, #2
 8002cf2:	4682      	mov	r10, r0
 8002cf4:	46b9      	mov	r9, r7
 8002cf6:	f04f 0801 	mov.w	r8, #1
 8002cfa:	fa97 f3a7 	rbit	r3, r7
 8002cfe:	fa97 f3a7 	rbit	r3, r7
 8002d02:	b373      	cbz	r3, 8002d62 <HAL_RCC_OscConfig+0x3d2>
 8002d04:	6a22      	ldr	r2, [r4, #32]
 8002d06:	fa99 f3a9 	rbit	r3, r9
 8002d0a:	fab3 f383 	clz	r3, r3
 8002d0e:	f003 031f 	and.w	r3, r3, #31
 8002d12:	fa08 f303 	lsl.w	r3, r8, r3
 8002d16:	4213      	tst	r3, r2
 8002d18:	d0be      	beq.n	8002c98 <HAL_RCC_OscConfig+0x308>
 8002d1a:	f000 fa09 	bl	8003130 <HAL_GetTick>
 8002d1e:	f241 3388 	movw	r3, #5000	; 0x1388
 8002d22:	eba0 000a 	sub.w	r0, r0, r10
 8002d26:	4298      	cmp	r0, r3
 8002d28:	d9e7      	bls.n	8002cfa <HAL_RCC_OscConfig+0x36a>
 8002d2a:	e696      	b.n	8002a5a <HAL_RCC_OscConfig+0xca>
 8002d2c:	2b05      	cmp	r3, #5
 8002d2e:	6a23      	ldr	r3, [r4, #32]
 8002d30:	d103      	bne.n	8002d3a <HAL_RCC_OscConfig+0x3aa>
 8002d32:	f043 0304 	orr.w	r3, r3, #4
 8002d36:	6223      	str	r3, [r4, #32]
 8002d38:	e792      	b.n	8002c60 <HAL_RCC_OscConfig+0x2d0>
 8002d3a:	f023 0301 	bic.w	r3, r3, #1
 8002d3e:	6223      	str	r3, [r4, #32]
 8002d40:	6a23      	ldr	r3, [r4, #32]
 8002d42:	f023 0304 	bic.w	r3, r3, #4
 8002d46:	e78e      	b.n	8002c66 <HAL_RCC_OscConfig+0x2d6>
 8002d48:	f000 f9f2 	bl	8003130 <HAL_GetTick>
 8002d4c:	f241 3388 	movw	r3, #5000	; 0x1388
 8002d50:	eba0 000a 	sub.w	r0, r0, r10
 8002d54:	4298      	cmp	r0, r3
 8002d56:	d98e      	bls.n	8002c76 <HAL_RCC_OscConfig+0x2e6>
 8002d58:	e67f      	b.n	8002a5a <HAL_RCC_OscConfig+0xca>
 8002d5a:	fa97 f3a7 	rbit	r3, r7
 8002d5e:	6a62      	ldr	r2, [r4, #36]	; 0x24
 8002d60:	e790      	b.n	8002c84 <HAL_RCC_OscConfig+0x2f4>
 8002d62:	fa97 f3a7 	rbit	r3, r7
 8002d66:	6a62      	ldr	r2, [r4, #36]	; 0x24
 8002d68:	e7cd      	b.n	8002d06 <HAL_RCC_OscConfig+0x376>
 8002d6a:	4c41      	ldr	r4, [pc, #260]	; (8002e70 <HAL_RCC_OscConfig+0x4e0>)
 8002d6c:	6863      	ldr	r3, [r4, #4]
 8002d6e:	f003 030c 	and.w	r3, r3, #12
 8002d72:	2b08      	cmp	r3, #8
 8002d74:	f43f ae45 	beq.w	8002a02 <HAL_RCC_OscConfig+0x72>
 8002d78:	2a02      	cmp	r2, #2
 8002d7a:	f04f 7380 	mov.w	r3, #16777216	; 0x1000000
 8002d7e:	d152      	bne.n	8002e26 <HAL_RCC_OscConfig+0x496>
 8002d80:	fa93 f3a3 	rbit	r3, r3
 8002d84:	fab3 f383 	clz	r3, r3
 8002d88:	f103 5384 	add.w	r3, r3, #276824064	; 0x10800000
 8002d8c:	f503 1384 	add.w	r3, r3, #1081344	; 0x108000
 8002d90:	009b      	lsls	r3, r3, #2
 8002d92:	2200      	movs	r2, #0
 8002d94:	601a      	str	r2, [r3, #0]
 8002d96:	f000 f9cb 	bl	8003130 <HAL_GetTick>
 8002d9a:	f04f 7700 	mov.w	r7, #33554432	; 0x2000000
 8002d9e:	4680      	mov	r8, r0
 8002da0:	2601      	movs	r6, #1
 8002da2:	fa97 f3a7 	rbit	r3, r7
 8002da6:	6822      	ldr	r2, [r4, #0]
 8002da8:	fa97 f3a7 	rbit	r3, r7
 8002dac:	fab3 f383 	clz	r3, r3
 8002db0:	f003 031f 	and.w	r3, r3, #31
 8002db4:	fa06 f303 	lsl.w	r3, r6, r3
 8002db8:	4213      	tst	r3, r2
 8002dba:	d12d      	bne.n	8002e18 <HAL_RCC_OscConfig+0x488>
 8002dbc:	6862      	ldr	r2, [r4, #4]
 8002dbe:	6a6b      	ldr	r3, [r5, #36]	; 0x24
 8002dc0:	6a29      	ldr	r1, [r5, #32]
 8002dc2:	f422 1274 	bic.w	r2, r2, #3997696	; 0x3d0000
 8002dc6:	430b      	orrs	r3, r1
 8002dc8:	4313      	orrs	r3, r2
 8002dca:	6063      	str	r3, [r4, #4]
 8002dcc:	f04f 7380 	mov.w	r3, #16777216	; 0x1000000
 8002dd0:	fa93 f3a3 	rbit	r3, r3
 8002dd4:	fab3 f383 	clz	r3, r3
 8002dd8:	f103 5384 	add.w	r3, r3, #276824064	; 0x10800000
 8002ddc:	f503 1384 	add.w	r3, r3, #1081344	; 0x108000
 8002de0:	009b      	lsls	r3, r3, #2
 8002de2:	f04f 7500 	mov.w	r5, #33554432	; 0x2000000
 8002de6:	601e      	str	r6, [r3, #0]
 8002de8:	f000 f9a2 	bl	8003130 <HAL_GetTick>
 8002dec:	2601      	movs	r6, #1
 8002dee:	4607      	mov	r7, r0
 8002df0:	fa95 f3a5 	rbit	r3, r5
 8002df4:	6822      	ldr	r2, [r4, #0]
 8002df6:	fa95 f3a5 	rbit	r3, r5
 8002dfa:	fab3 f383 	clz	r3, r3
 8002dfe:	f003 031f 	and.w	r3, r3, #31
 8002e02:	fa06 f303 	lsl.w	r3, r6, r3
 8002e06:	4213      	tst	r3, r2
 8002e08:	f47f add8 	bne.w	80029bc <HAL_RCC_OscConfig+0x2c>
 8002e0c:	f000 f990 	bl	8003130 <HAL_GetTick>
 8002e10:	1bc0      	subs	r0, r0, r7
 8002e12:	2802      	cmp	r0, #2
 8002e14:	d9ec      	bls.n	8002df0 <HAL_RCC_OscConfig+0x460>
 8002e16:	e620      	b.n	8002a5a <HAL_RCC_OscConfig+0xca>
 8002e18:	f000 f98a 	bl	8003130 <HAL_GetTick>
 8002e1c:	eba0 0008 	sub.w	r0, r0, r8
 8002e20:	2802      	cmp	r0, #2
 8002e22:	d9be      	bls.n	8002da2 <HAL_RCC_OscConfig+0x412>
 8002e24:	e619      	b.n	8002a5a <HAL_RCC_OscConfig+0xca>
 8002e26:	fa93 f3a3 	rbit	r3, r3
 8002e2a:	fab3 f383 	clz	r3, r3
 8002e2e:	f103 5384 	add.w	r3, r3, #276824064	; 0x10800000
 8002e32:	f503 1384 	add.w	r3, r3, #1081344	; 0x108000
 8002e36:	009b      	lsls	r3, r3, #2
 8002e38:	2200      	movs	r2, #0
 8002e3a:	601a      	str	r2, [r3, #0]
 8002e3c:	f000 f978 	bl	8003130 <HAL_GetTick>
 8002e40:	f04f 7500 	mov.w	r5, #33554432	; 0x2000000
 8002e44:	4607      	mov	r7, r0
 8002e46:	2601      	movs	r6, #1
 8002e48:	fa95 f3a5 	rbit	r3, r5
 8002e4c:	6822      	ldr	r2, [r4, #0]
 8002e4e:	fa95 f3a5 	rbit	r3, r5
 8002e52:	fab3 f383 	clz	r3, r3
 8002e56:	f003 031f 	and.w	r3, r3, #31
 8002e5a:	fa06 f303 	lsl.w	r3, r6, r3
 8002e5e:	4213      	tst	r3, r2
 8002e60:	f43f adac 	beq.w	80029bc <HAL_RCC_OscConfig+0x2c>
 8002e64:	f000 f964 	bl	8003130 <HAL_GetTick>
 8002e68:	1bc0      	subs	r0, r0, r7
 8002e6a:	2802      	cmp	r0, #2
 8002e6c:	d9ec      	bls.n	8002e48 <HAL_RCC_OscConfig+0x4b8>
 8002e6e:	e5f4      	b.n	8002a5a <HAL_RCC_OscConfig+0xca>
 8002e70:	40021000 	.word	0x40021000

08002e74 <HAL_RCC_GetSysClockFreq>:
 8002e74:	b510      	push	{r4, lr}
 8002e76:	4c13      	ldr	r4, [pc, #76]	; (8002ec4 <HAL_RCC_GetSysClockFreq+0x50>)
 8002e78:	6861      	ldr	r1, [r4, #4]
 8002e7a:	f001 030c 	and.w	r3, r1, #12
 8002e7e:	2b08      	cmp	r3, #8
 8002e80:	d11e      	bne.n	8002ec0 <HAL_RCC_GetSysClockFreq+0x4c>
 8002e82:	f44f 1370 	mov.w	r3, #3932160	; 0x3c0000
 8002e86:	fa93 f3a3 	rbit	r3, r3
 8002e8a:	f401 1270 	and.w	r2, r1, #3932160	; 0x3c0000
 8002e8e:	fab3 f383 	clz	r3, r3
 8002e92:	fa22 f303 	lsr.w	r3, r2, r3
 8002e96:	4a0c      	ldr	r2, [pc, #48]	; (8002ec8 <HAL_RCC_GetSysClockFreq+0x54>)
 8002e98:	5cd0      	ldrb	r0, [r2, r3]
 8002e9a:	6ae3      	ldr	r3, [r4, #44]	; 0x2c
 8002e9c:	220f      	movs	r2, #15
 8002e9e:	fa92 f2a2 	rbit	r2, r2
 8002ea2:	fab2 f282 	clz	r2, r2
 8002ea6:	f003 030f 	and.w	r3, r3, #15
 8002eaa:	40d3      	lsrs	r3, r2
 8002eac:	4a07      	ldr	r2, [pc, #28]	; (8002ecc <HAL_RCC_GetSysClockFreq+0x58>)
 8002eae:	5cd2      	ldrb	r2, [r2, r3]
 8002eb0:	03cb      	lsls	r3, r1, #15
 8002eb2:	bf4a      	itet	mi
 8002eb4:	4b06      	ldrmi	r3, [pc, #24]	; (8002ed0 <HAL_RCC_GetSysClockFreq+0x5c>)
 8002eb6:	4b07      	ldrpl	r3, [pc, #28]	; (8002ed4 <HAL_RCC_GetSysClockFreq+0x60>)
 8002eb8:	fbb3 f3f2 	udivmi	r3, r3, r2
 8002ebc:	4358      	muls	r0, r3
 8002ebe:	bd10      	pop	{r4, pc}
 8002ec0:	4803      	ldr	r0, [pc, #12]	; (8002ed0 <HAL_RCC_GetSysClockFreq+0x5c>)
 8002ec2:	bd10      	pop	{r4, pc}
 8002ec4:	40021000 	.word	0x40021000
 8002ec8:	0800663c 	.word	0x0800663c
 8002ecc:	0800664c 	.word	0x0800664c
 8002ed0:	007a1200 	.word	0x007a1200
 8002ed4:	003d0900 	.word	0x003d0900

08002ed8 <HAL_RCC_ClockConfig>:
 8002ed8:	4a5c      	ldr	r2, [pc, #368]	; (800304c <HAL_RCC_ClockConfig+0x174>)
 8002eda:	6813      	ldr	r3, [r2, #0]
 8002edc:	f003 0307 	and.w	r3, r3, #7
 8002ee0:	428b      	cmp	r3, r1
 8002ee2:	e92d 41f0 	stmdb	sp!, {r4, r5, r6, r7, r8, lr}
 8002ee6:	4606      	mov	r6, r0
 8002ee8:	460d      	mov	r5, r1
 8002eea:	d330      	bcc.n	8002f4e <HAL_RCC_ClockConfig+0x76>
 8002eec:	6832      	ldr	r2, [r6, #0]
 8002eee:	0791      	lsls	r1, r2, #30
 8002ef0:	d43a      	bmi.n	8002f68 <HAL_RCC_ClockConfig+0x90>
 8002ef2:	07d2      	lsls	r2, r2, #31
 8002ef4:	d440      	bmi.n	8002f78 <HAL_RCC_ClockConfig+0xa0>
 8002ef6:	4a55      	ldr	r2, [pc, #340]	; (800304c <HAL_RCC_ClockConfig+0x174>)
 8002ef8:	6813      	ldr	r3, [r2, #0]
 8002efa:	f003 0307 	and.w	r3, r3, #7
 8002efe:	429d      	cmp	r5, r3
 8002f00:	f0c0 8092 	bcc.w	8003028 <HAL_RCC_ClockConfig+0x150>
 8002f04:	6832      	ldr	r2, [r6, #0]
 8002f06:	4c52      	ldr	r4, [pc, #328]	; (8003050 <HAL_RCC_ClockConfig+0x178>)
 8002f08:	f012 0f04 	tst.w	r2, #4
 8002f0c:	f040 8097 	bne.w	800303e <HAL_RCC_ClockConfig+0x166>
 8002f10:	0713      	lsls	r3, r2, #28
 8002f12:	d506      	bpl.n	8002f22 <HAL_RCC_ClockConfig+0x4a>
 8002f14:	6863      	ldr	r3, [r4, #4]
 8002f16:	6932      	ldr	r2, [r6, #16]
 8002f18:	f423 5360 	bic.w	r3, r3, #14336	; 0x3800
 8002f1c:	ea43 03c2 	orr.w	r3, r3, r2, lsl #3
 8002f20:	6063      	str	r3, [r4, #4]
 8002f22:	f7ff ffa7 	bl	8002e74 <HAL_RCC_GetSysClockFreq>
 8002f26:	6863      	ldr	r3, [r4, #4]
 8002f28:	22f0      	movs	r2, #240	; 0xf0
 8002f2a:	fa92 f2a2 	rbit	r2, r2
 8002f2e:	fab2 f282 	clz	r2, r2
 8002f32:	f003 03f0 	and.w	r3, r3, #240	; 0xf0
 8002f36:	40d3      	lsrs	r3, r2
 8002f38:	4a46      	ldr	r2, [pc, #280]	; (8003054 <HAL_RCC_ClockConfig+0x17c>)
 8002f3a:	5cd3      	ldrb	r3, [r2, r3]
 8002f3c:	40d8      	lsrs	r0, r3
 8002f3e:	4b46      	ldr	r3, [pc, #280]	; (8003058 <HAL_RCC_ClockConfig+0x180>)
 8002f40:	6018      	str	r0, [r3, #0]
 8002f42:	200f      	movs	r0, #15
 8002f44:	f7fe fe4a 	bl	8001bdc <HAL_InitTick>
 8002f48:	2000      	movs	r0, #0
 8002f4a:	e8bd 81f0 	ldmia.w	sp!, {r4, r5, r6, r7, r8, pc}
 8002f4e:	6813      	ldr	r3, [r2, #0]
 8002f50:	f023 0307 	bic.w	r3, r3, #7
 8002f54:	430b      	orrs	r3, r1
 8002f56:	6013      	str	r3, [r2, #0]
 8002f58:	6813      	ldr	r3, [r2, #0]
 8002f5a:	f003 0307 	and.w	r3, r3, #7
 8002f5e:	4299      	cmp	r1, r3
 8002f60:	d0c4      	beq.n	8002eec <HAL_RCC_ClockConfig+0x14>
 8002f62:	2001      	movs	r0, #1
 8002f64:	e8bd 81f0 	ldmia.w	sp!, {r4, r5, r6, r7, r8, pc}
 8002f68:	4939      	ldr	r1, [pc, #228]	; (8003050 <HAL_RCC_ClockConfig+0x178>)
 8002f6a:	68b0      	ldr	r0, [r6, #8]
 8002f6c:	684b      	ldr	r3, [r1, #4]
 8002f6e:	f023 03f0 	bic.w	r3, r3, #240	; 0xf0
 8002f72:	4303      	orrs	r3, r0
 8002f74:	604b      	str	r3, [r1, #4]
 8002f76:	e7bc      	b.n	8002ef2 <HAL_RCC_ClockConfig+0x1a>
 8002f78:	6872      	ldr	r2, [r6, #4]
 8002f7a:	4c35      	ldr	r4, [pc, #212]	; (8003050 <HAL_RCC_ClockConfig+0x178>)
 8002f7c:	2a01      	cmp	r2, #1
 8002f7e:	d128      	bne.n	8002fd2 <HAL_RCC_ClockConfig+0xfa>
 8002f80:	f44f 3300 	mov.w	r3, #131072	; 0x20000
 8002f84:	fa93 f1a3 	rbit	r1, r3
 8002f88:	6821      	ldr	r1, [r4, #0]
 8002f8a:	fa93 f3a3 	rbit	r3, r3
 8002f8e:	fab3 f383 	clz	r3, r3
 8002f92:	f003 031f 	and.w	r3, r3, #31
 8002f96:	fa02 f303 	lsl.w	r3, r2, r3
 8002f9a:	420b      	tst	r3, r1
 8002f9c:	d0e1      	beq.n	8002f62 <HAL_RCC_ClockConfig+0x8a>
 8002f9e:	6863      	ldr	r3, [r4, #4]
 8002fa0:	f023 0303 	bic.w	r3, r3, #3
 8002fa4:	431a      	orrs	r2, r3
 8002fa6:	6062      	str	r2, [r4, #4]
 8002fa8:	f000 f8c2 	bl	8003130 <HAL_GetTick>
 8002fac:	6873      	ldr	r3, [r6, #4]
 8002fae:	2b01      	cmp	r3, #1
 8002fb0:	4607      	mov	r7, r0
 8002fb2:	f241 3888 	movw	r8, #5000	; 0x1388
 8002fb6:	d11f      	bne.n	8002ff8 <HAL_RCC_ClockConfig+0x120>
 8002fb8:	6863      	ldr	r3, [r4, #4]
 8002fba:	f003 030c 	and.w	r3, r3, #12
 8002fbe:	2b04      	cmp	r3, #4
 8002fc0:	d099      	beq.n	8002ef6 <HAL_RCC_ClockConfig+0x1e>
 8002fc2:	f000 f8b5 	bl	8003130 <HAL_GetTick>
 8002fc6:	1bc0      	subs	r0, r0, r7
 8002fc8:	4540      	cmp	r0, r8
 8002fca:	d9f5      	bls.n	8002fb8 <HAL_RCC_ClockConfig+0xe0>
 8002fcc:	2003      	movs	r0, #3
 8002fce:	e8bd 81f0 	ldmia.w	sp!, {r4, r5, r6, r7, r8, pc}
 8002fd2:	2a02      	cmp	r2, #2
 8002fd4:	bf0c      	ite	eq
 8002fd6:	f04f 7300 	moveq.w	r3, #33554432	; 0x2000000
 8002fda:	2302      	movne	r3, #2
 8002fdc:	fa93 f1a3 	rbit	r1, r3
 8002fe0:	6820      	ldr	r0, [r4, #0]
 8002fe2:	fa93 f3a3 	rbit	r3, r3
 8002fe6:	fab3 f383 	clz	r3, r3
 8002fea:	f003 031f 	and.w	r3, r3, #31
 8002fee:	2101      	movs	r1, #1
 8002ff0:	fa01 f303 	lsl.w	r3, r1, r3
 8002ff4:	4203      	tst	r3, r0
 8002ff6:	e7d1      	b.n	8002f9c <HAL_RCC_ClockConfig+0xc4>
 8002ff8:	2b02      	cmp	r3, #2
 8002ffa:	d110      	bne.n	800301e <HAL_RCC_ClockConfig+0x146>
 8002ffc:	6863      	ldr	r3, [r4, #4]
 8002ffe:	f003 030c 	and.w	r3, r3, #12
 8003002:	2b08      	cmp	r3, #8
 8003004:	f43f af77 	beq.w	8002ef6 <HAL_RCC_ClockConfig+0x1e>
 8003008:	f000 f892 	bl	8003130 <HAL_GetTick>
 800300c:	1bc0      	subs	r0, r0, r7
 800300e:	4540      	cmp	r0, r8
 8003010:	d9f4      	bls.n	8002ffc <HAL_RCC_ClockConfig+0x124>
 8003012:	e7db      	b.n	8002fcc <HAL_RCC_ClockConfig+0xf4>
 8003014:	f000 f88c 	bl	8003130 <HAL_GetTick>
 8003018:	1bc0      	subs	r0, r0, r7
 800301a:	4540      	cmp	r0, r8
 800301c:	d8d6      	bhi.n	8002fcc <HAL_RCC_ClockConfig+0xf4>
 800301e:	6863      	ldr	r3, [r4, #4]
 8003020:	f013 0f0c 	tst.w	r3, #12
 8003024:	d1f6      	bne.n	8003014 <HAL_RCC_ClockConfig+0x13c>
 8003026:	e766      	b.n	8002ef6 <HAL_RCC_ClockConfig+0x1e>
 8003028:	6813      	ldr	r3, [r2, #0]
 800302a:	f023 0307 	bic.w	r3, r3, #7
 800302e:	432b      	orrs	r3, r5
 8003030:	6013      	str	r3, [r2, #0]
 8003032:	6813      	ldr	r3, [r2, #0]
 8003034:	f003 0307 	and.w	r3, r3, #7
 8003038:	429d      	cmp	r5, r3
 800303a:	d192      	bne.n	8002f62 <HAL_RCC_ClockConfig+0x8a>
 800303c:	e762      	b.n	8002f04 <HAL_RCC_ClockConfig+0x2c>
 800303e:	6863      	ldr	r3, [r4, #4]
 8003040:	68f1      	ldr	r1, [r6, #12]
 8003042:	f423 63e0 	bic.w	r3, r3, #1792	; 0x700
 8003046:	430b      	orrs	r3, r1
 8003048:	6063      	str	r3, [r4, #4]
 800304a:	e761      	b.n	8002f10 <HAL_RCC_ClockConfig+0x38>
 800304c:	40022000 	.word	0x40022000
 8003050:	40021000 	.word	0x40021000
 8003054:	08006624 	.word	0x08006624
 8003058:	200001a4 	.word	0x200001a4

0800305c <HAL_RCC_GetPCLK1Freq>:
 800305c:	4b08      	ldr	r3, [pc, #32]	; (8003080 <HAL_RCC_GetPCLK1Freq+0x24>)
 800305e:	f44f 62e0 	mov.w	r2, #1792	; 0x700
 8003062:	685b      	ldr	r3, [r3, #4]
 8003064:	fa92 f2a2 	rbit	r2, r2
 8003068:	fab2 f282 	clz	r2, r2
 800306c:	f403 63e0 	and.w	r3, r3, #1792	; 0x700
 8003070:	40d3      	lsrs	r3, r2
 8003072:	4a04      	ldr	r2, [pc, #16]	; (8003084 <HAL_RCC_GetPCLK1Freq+0x28>)
 8003074:	5cd3      	ldrb	r3, [r2, r3]
 8003076:	4a04      	ldr	r2, [pc, #16]	; (8003088 <HAL_RCC_GetPCLK1Freq+0x2c>)
 8003078:	6810      	ldr	r0, [r2, #0]
 800307a:	40d8      	lsrs	r0, r3
 800307c:	4770      	bx	lr
 800307e:	bf00      	nop
 8003080:	40021000 	.word	0x40021000
 8003084:	08006634 	.word	0x08006634
 8003088:	200001a4 	.word	0x200001a4

0800308c <HAL_RCC_GetPCLK2Freq>:
 800308c:	4b08      	ldr	r3, [pc, #32]	; (80030b0 <HAL_RCC_GetPCLK2Freq+0x24>)
 800308e:	f44f 5260 	mov.w	r2, #14336	; 0x3800
 8003092:	685b      	ldr	r3, [r3, #4]
 8003094:	fa92 f2a2 	rbit	r2, r2
 8003098:	fab2 f282 	clz	r2, r2
 800309c:	f403 5360 	and.w	r3, r3, #14336	; 0x3800
 80030a0:	40d3      	lsrs	r3, r2
 80030a2:	4a04      	ldr	r2, [pc, #16]	; (80030b4 <HAL_RCC_GetPCLK2Freq+0x28>)
 80030a4:	5cd3      	ldrb	r3, [r2, r3]
 80030a6:	4a04      	ldr	r2, [pc, #16]	; (80030b8 <HAL_RCC_GetPCLK2Freq+0x2c>)
 80030a8:	6810      	ldr	r0, [r2, #0]
 80030aa:	40d8      	lsrs	r0, r3
 80030ac:	4770      	bx	lr
 80030ae:	bf00      	nop
 80030b0:	40021000 	.word	0x40021000
 80030b4:	08006634 	.word	0x08006634
 80030b8:	200001a4 	.word	0x200001a4

080030bc <HAL_RCC_GetClockConfig>:
 80030bc:	230f      	movs	r3, #15
 80030be:	6003      	str	r3, [r0, #0]
 80030c0:	4b0b      	ldr	r3, [pc, #44]	; (80030f0 <HAL_RCC_GetClockConfig+0x34>)
 80030c2:	685a      	ldr	r2, [r3, #4]
 80030c4:	f002 0203 	and.w	r2, r2, #3
 80030c8:	6042      	str	r2, [r0, #4]
 80030ca:	685a      	ldr	r2, [r3, #4]
 80030cc:	f002 02f0 	and.w	r2, r2, #240	; 0xf0
 80030d0:	6082      	str	r2, [r0, #8]
 80030d2:	685a      	ldr	r2, [r3, #4]
 80030d4:	f402 62e0 	and.w	r2, r2, #1792	; 0x700
 80030d8:	60c2      	str	r2, [r0, #12]
 80030da:	685b      	ldr	r3, [r3, #4]
 80030dc:	08db      	lsrs	r3, r3, #3
 80030de:	f403 63e0 	and.w	r3, r3, #1792	; 0x700
 80030e2:	6103      	str	r3, [r0, #16]
 80030e4:	4b03      	ldr	r3, [pc, #12]	; (80030f4 <HAL_RCC_GetClockConfig+0x38>)
 80030e6:	681b      	ldr	r3, [r3, #0]
 80030e8:	f003 0307 	and.w	r3, r3, #7
 80030ec:	600b      	str	r3, [r1, #0]
 80030ee:	4770      	bx	lr
 80030f0:	40021000 	.word	0x40021000
 80030f4:	40022000 	.word	0x40022000

080030f8 <HAL_MspInit>:
 80030f8:	4770      	bx	lr
	...

080030fc <HAL_Init>:
 80030fc:	4a07      	ldr	r2, [pc, #28]	; (800311c <HAL_Init+0x20>)
 80030fe:	b508      	push	{r3, lr}
 8003100:	6813      	ldr	r3, [r2, #0]
 8003102:	f043 0310 	orr.w	r3, r3, #16
 8003106:	6013      	str	r3, [r2, #0]
 8003108:	2003      	movs	r0, #3
 800310a:	f000 f817 	bl	800313c <HAL_NVIC_SetPriorityGrouping>
 800310e:	200f      	movs	r0, #15
 8003110:	f7fe fd64 	bl	8001bdc <HAL_InitTick>
 8003114:	f7ff fff0 	bl	80030f8 <HAL_MspInit>
 8003118:	2000      	movs	r0, #0
 800311a:	bd08      	pop	{r3, pc}
 800311c:	40022000 	.word	0x40022000

08003120 <HAL_IncTick>:
 8003120:	4a02      	ldr	r2, [pc, #8]	; (800312c <HAL_IncTick+0xc>)
 8003122:	6813      	ldr	r3, [r2, #0]
 8003124:	3301      	adds	r3, #1
 8003126:	6013      	str	r3, [r2, #0]
 8003128:	4770      	bx	lr
 800312a:	bf00      	nop
 800312c:	20001a84 	.word	0x20001a84

08003130 <HAL_GetTick>:
 8003130:	4b01      	ldr	r3, [pc, #4]	; (8003138 <HAL_GetTick+0x8>)
 8003132:	6818      	ldr	r0, [r3, #0]
 8003134:	4770      	bx	lr
 8003136:	bf00      	nop
 8003138:	20001a84 	.word	0x20001a84

0800313c <HAL_NVIC_SetPriorityGrouping>:
 800313c:	4a07      	ldr	r2, [pc, #28]	; (800315c <HAL_NVIC_SetPriorityGrouping+0x20>)
 800313e:	68d3      	ldr	r3, [r2, #12]
 8003140:	f423 63e0 	bic.w	r3, r3, #1792	; 0x700
 8003144:	041b      	lsls	r3, r3, #16
 8003146:	0c1b      	lsrs	r3, r3, #16
 8003148:	f043 63bf 	orr.w	r3, r3, #100139008	; 0x5f80000
 800314c:	0200      	lsls	r0, r0, #8
 800314e:	f443 3300 	orr.w	r3, r3, #131072	; 0x20000
 8003152:	f400 60e0 	and.w	r0, r0, #1792	; 0x700
 8003156:	4303      	orrs	r3, r0
 8003158:	60d3      	str	r3, [r2, #12]
 800315a:	4770      	bx	lr
 800315c:	e000ed00 	.word	0xe000ed00

08003160 <HAL_CAN_ConfigFilter>:
 8003160:	6803      	ldr	r3, [r0, #0]
 8003162:	f8d3 0200 	ldr.w	r0, [r3, #512]	; 0x200
 8003166:	b570      	push	{r4, r5, r6, lr}
 8003168:	f040 0001 	orr.w	r0, r0, #1
 800316c:	694c      	ldr	r4, [r1, #20]
 800316e:	f8c3 0200 	str.w	r0, [r3, #512]	; 0x200
 8003172:	2201      	movs	r2, #1
 8003174:	f8d3 521c 	ldr.w	r5, [r3, #540]	; 0x21c
 8003178:	40a2      	lsls	r2, r4
 800317a:	43d0      	mvns	r0, r2
 800317c:	4005      	ands	r5, r0
 800317e:	f8c3 521c 	str.w	r5, [r3, #540]	; 0x21c
 8003182:	69cd      	ldr	r5, [r1, #28]
 8003184:	bb85      	cbnz	r5, 80031e8 <HAL_CAN_ConfigFilter+0x88>
 8003186:	f8d3 520c 	ldr.w	r5, [r3, #524]	; 0x20c
 800318a:	68ce      	ldr	r6, [r1, #12]
 800318c:	4005      	ands	r5, r0
 800318e:	f8c3 520c 	str.w	r5, [r3, #524]	; 0x20c
 8003192:	888d      	ldrh	r5, [r1, #4]
 8003194:	eb03 04c4 	add.w	r4, r3, r4, lsl #3
 8003198:	ea45 4506 	orr.w	r5, r5, r6, lsl #16
 800319c:	f8c4 5240 	str.w	r5, [r4, #576]	; 0x240
 80031a0:	688e      	ldr	r6, [r1, #8]
 80031a2:	880d      	ldrh	r5, [r1, #0]
 80031a4:	ea45 4506 	orr.w	r5, r5, r6, lsl #16
 80031a8:	f8c4 5244 	str.w	r5, [r4, #580]	; 0x244
 80031ac:	698c      	ldr	r4, [r1, #24]
 80031ae:	bb6c      	cbnz	r4, 800320c <HAL_CAN_ConfigFilter+0xac>
 80031b0:	f8d3 4204 	ldr.w	r4, [r3, #516]	; 0x204
 80031b4:	4004      	ands	r4, r0
 80031b6:	f8c3 4204 	str.w	r4, [r3, #516]	; 0x204
 80031ba:	690c      	ldr	r4, [r1, #16]
 80031bc:	bb54      	cbnz	r4, 8003214 <HAL_CAN_ConfigFilter+0xb4>
 80031be:	f8d3 4214 	ldr.w	r4, [r3, #532]	; 0x214
 80031c2:	4020      	ands	r0, r4
 80031c4:	f8c3 0214 	str.w	r0, [r3, #532]	; 0x214
 80031c8:	6a09      	ldr	r1, [r1, #32]
 80031ca:	2901      	cmp	r1, #1
 80031cc:	bf02      	ittt	eq
 80031ce:	f8d3 121c 	ldreq.w	r1, [r3, #540]	; 0x21c
 80031d2:	430a      	orreq	r2, r1
 80031d4:	f8c3 221c 	streq.w	r2, [r3, #540]	; 0x21c
 80031d8:	f8d3 2200 	ldr.w	r2, [r3, #512]	; 0x200
 80031dc:	f022 0201 	bic.w	r2, r2, #1
 80031e0:	f8c3 2200 	str.w	r2, [r3, #512]	; 0x200
 80031e4:	2000      	movs	r0, #0
 80031e6:	bd70      	pop	{r4, r5, r6, pc}
 80031e8:	2d01      	cmp	r5, #1
 80031ea:	d1df      	bne.n	80031ac <HAL_CAN_ConfigFilter+0x4c>
 80031ec:	f8d3 520c 	ldr.w	r5, [r3, #524]	; 0x20c
 80031f0:	680e      	ldr	r6, [r1, #0]
 80031f2:	4315      	orrs	r5, r2
 80031f4:	f8c3 520c 	str.w	r5, [r3, #524]	; 0x20c
 80031f8:	888d      	ldrh	r5, [r1, #4]
 80031fa:	eb03 04c4 	add.w	r4, r3, r4, lsl #3
 80031fe:	ea45 4506 	orr.w	r5, r5, r6, lsl #16
 8003202:	f8c4 5240 	str.w	r5, [r4, #576]	; 0x240
 8003206:	688e      	ldr	r6, [r1, #8]
 8003208:	898d      	ldrh	r5, [r1, #12]
 800320a:	e7cb      	b.n	80031a4 <HAL_CAN_ConfigFilter+0x44>
 800320c:	f8d3 4204 	ldr.w	r4, [r3, #516]	; 0x204
 8003210:	4314      	orrs	r4, r2
 8003212:	e7d0      	b.n	80031b6 <HAL_CAN_ConfigFilter+0x56>
 8003214:	2c01      	cmp	r4, #1
 8003216:	d1d7      	bne.n	80031c8 <HAL_CAN_ConfigFilter+0x68>
 8003218:	f8d3 0214 	ldr.w	r0, [r3, #532]	; 0x214
 800321c:	4310      	orrs	r0, r2
 800321e:	e7d1      	b.n	80031c4 <HAL_CAN_ConfigFilter+0x64>

08003220 <HAL_CAN_MspInit>:
 8003220:	4770      	bx	lr

08003222 <HAL_CAN_Init>:
 8003222:	b570      	push	{r4, r5, r6, lr}
 8003224:	4604      	mov	r4, r0
 8003226:	2800      	cmp	r0, #0
 8003228:	d072      	beq.n	8003310 <HAL_CAN_Init+0xee>
 800322a:	f890 3039 	ldrb.w	r3, [r0, #57]	; 0x39
 800322e:	f003 02ff 	and.w	r2, r3, #255	; 0xff
 8003232:	b91b      	cbnz	r3, 800323c <HAL_CAN_Init+0x1a>
 8003234:	f880 2038 	strb.w	r2, [r0, #56]	; 0x38
 8003238:	f7ff fff2 	bl	8003220 <HAL_CAN_MspInit>
 800323c:	2302      	movs	r3, #2
 800323e:	f884 3039 	strb.w	r3, [r4, #57]	; 0x39
 8003242:	6823      	ldr	r3, [r4, #0]
 8003244:	681a      	ldr	r2, [r3, #0]
 8003246:	f022 0202 	bic.w	r2, r2, #2
 800324a:	601a      	str	r2, [r3, #0]
 800324c:	681a      	ldr	r2, [r3, #0]
 800324e:	f042 0201 	orr.w	r2, r2, #1
 8003252:	601a      	str	r2, [r3, #0]
 8003254:	f7ff ff6c 	bl	8003130 <HAL_GetTick>
 8003258:	4606      	mov	r6, r0
 800325a:	6823      	ldr	r3, [r4, #0]
 800325c:	685d      	ldr	r5, [r3, #4]
 800325e:	f015 0501 	ands.w	r5, r5, #1
 8003262:	d057      	beq.n	8003314 <HAL_CAN_Init+0xf2>
 8003264:	685a      	ldr	r2, [r3, #4]
 8003266:	07d1      	lsls	r1, r2, #31
 8003268:	d54f      	bpl.n	800330a <HAL_CAN_Init+0xe8>
 800326a:	69a2      	ldr	r2, [r4, #24]
 800326c:	2a01      	cmp	r2, #1
 800326e:	681a      	ldr	r2, [r3, #0]
 8003270:	bf0c      	ite	eq
 8003272:	f042 0280 	orreq.w	r2, r2, #128	; 0x80
 8003276:	f022 0280 	bicne.w	r2, r2, #128	; 0x80
 800327a:	601a      	str	r2, [r3, #0]
 800327c:	69e2      	ldr	r2, [r4, #28]
 800327e:	2a01      	cmp	r2, #1
 8003280:	681a      	ldr	r2, [r3, #0]
 8003282:	bf0c      	ite	eq
 8003284:	f042 0240 	orreq.w	r2, r2, #64	; 0x40
 8003288:	f022 0240 	bicne.w	r2, r2, #64	; 0x40
 800328c:	601a      	str	r2, [r3, #0]
 800328e:	6a22      	ldr	r2, [r4, #32]
 8003290:	2a01      	cmp	r2, #1
 8003292:	681a      	ldr	r2, [r3, #0]
 8003294:	bf0c      	ite	eq
 8003296:	f042 0220 	orreq.w	r2, r2, #32
 800329a:	f022 0220 	bicne.w	r2, r2, #32
 800329e:	601a      	str	r2, [r3, #0]
 80032a0:	6a62      	ldr	r2, [r4, #36]	; 0x24
 80032a2:	2a01      	cmp	r2, #1
 80032a4:	681a      	ldr	r2, [r3, #0]
 80032a6:	bf0c      	ite	eq
 80032a8:	f042 0210 	orreq.w	r2, r2, #16
 80032ac:	f022 0210 	bicne.w	r2, r2, #16
 80032b0:	601a      	str	r2, [r3, #0]
 80032b2:	6aa2      	ldr	r2, [r4, #40]	; 0x28
 80032b4:	2a01      	cmp	r2, #1
 80032b6:	681a      	ldr	r2, [r3, #0]
 80032b8:	bf0c      	ite	eq
 80032ba:	f042 0208 	orreq.w	r2, r2, #8
 80032be:	f022 0208 	bicne.w	r2, r2, #8
 80032c2:	601a      	str	r2, [r3, #0]
 80032c4:	6ae2      	ldr	r2, [r4, #44]	; 0x2c
 80032c6:	2a01      	cmp	r2, #1
 80032c8:	681a      	ldr	r2, [r3, #0]
 80032ca:	bf0c      	ite	eq
 80032cc:	f042 0204 	orreq.w	r2, r2, #4
 80032d0:	f022 0204 	bicne.w	r2, r2, #4
 80032d4:	601a      	str	r2, [r3, #0]
 80032d6:	68e1      	ldr	r1, [r4, #12]
 80032d8:	68a2      	ldr	r2, [r4, #8]
 80032da:	430a      	orrs	r2, r1
 80032dc:	6921      	ldr	r1, [r4, #16]
 80032de:	430a      	orrs	r2, r1
 80032e0:	6961      	ldr	r1, [r4, #20]
 80032e2:	430a      	orrs	r2, r1
 80032e4:	6861      	ldr	r1, [r4, #4]
 80032e6:	3901      	subs	r1, #1
 80032e8:	430a      	orrs	r2, r1
 80032ea:	61da      	str	r2, [r3, #28]
 80032ec:	681a      	ldr	r2, [r3, #0]
 80032ee:	f022 0201 	bic.w	r2, r2, #1
 80032f2:	601a      	str	r2, [r3, #0]
 80032f4:	f7ff ff1c 	bl	8003130 <HAL_GetTick>
 80032f8:	4605      	mov	r5, r0
 80032fa:	6823      	ldr	r3, [r4, #0]
 80032fc:	685a      	ldr	r2, [r3, #4]
 80032fe:	07d2      	lsls	r2, r2, #31
 8003300:	d413      	bmi.n	800332a <HAL_CAN_Init+0x108>
 8003302:	6858      	ldr	r0, [r3, #4]
 8003304:	f010 0001 	ands.w	r0, r0, #1
 8003308:	d01b      	beq.n	8003342 <HAL_CAN_Init+0x120>
 800330a:	2304      	movs	r3, #4
 800330c:	f884 3039 	strb.w	r3, [r4, #57]	; 0x39
 8003310:	2001      	movs	r0, #1
 8003312:	bd70      	pop	{r4, r5, r6, pc}
 8003314:	f7ff ff0c 	bl	8003130 <HAL_GetTick>
 8003318:	1b80      	subs	r0, r0, r6
 800331a:	280a      	cmp	r0, #10
 800331c:	d99d      	bls.n	800325a <HAL_CAN_Init+0x38>
 800331e:	2003      	movs	r0, #3
 8003320:	f884 0039 	strb.w	r0, [r4, #57]	; 0x39
 8003324:	f884 5038 	strb.w	r5, [r4, #56]	; 0x38
 8003328:	bd70      	pop	{r4, r5, r6, pc}
 800332a:	f7ff ff01 	bl	8003130 <HAL_GetTick>
 800332e:	1b40      	subs	r0, r0, r5
 8003330:	280a      	cmp	r0, #10
 8003332:	d9e2      	bls.n	80032fa <HAL_CAN_Init+0xd8>
 8003334:	2003      	movs	r0, #3
 8003336:	2300      	movs	r3, #0
 8003338:	f884 0039 	strb.w	r0, [r4, #57]	; 0x39
 800333c:	f884 3038 	strb.w	r3, [r4, #56]	; 0x38
 8003340:	bd70      	pop	{r4, r5, r6, pc}
 8003342:	2301      	movs	r3, #1
 8003344:	63e0      	str	r0, [r4, #60]	; 0x3c
 8003346:	f884 3039 	strb.w	r3, [r4, #57]	; 0x39
 800334a:	bd70      	pop	{r4, r5, r6, pc}

0800334c <HAL_TIM_OC_MspInit>:
 800334c:	4770      	bx	lr
	...

08003350 <TIM_Base_SetConfig>:
 8003350:	4a21      	ldr	r2, [pc, #132]	; (80033d8 <TIM_Base_SetConfig+0x88>)
 8003352:	6803      	ldr	r3, [r0, #0]
 8003354:	4290      	cmp	r0, r2
 8003356:	b510      	push	{r4, lr}
 8003358:	d005      	beq.n	8003366 <TIM_Base_SetConfig+0x16>
 800335a:	f1b0 4f80 	cmp.w	r0, #1073741824	; 0x40000000
 800335e:	d002      	beq.n	8003366 <TIM_Base_SetConfig+0x16>
 8003360:	4c1e      	ldr	r4, [pc, #120]	; (80033dc <TIM_Base_SetConfig+0x8c>)
 8003362:	42a0      	cmp	r0, r4
 8003364:	d10c      	bne.n	8003380 <TIM_Base_SetConfig+0x30>
 8003366:	684c      	ldr	r4, [r1, #4]
 8003368:	f023 0370 	bic.w	r3, r3, #112	; 0x70
 800336c:	4290      	cmp	r0, r2
 800336e:	ea43 0304 	orr.w	r3, r3, r4
 8003372:	d010      	beq.n	8003396 <TIM_Base_SetConfig+0x46>
 8003374:	f1b0 4f80 	cmp.w	r0, #1073741824	; 0x40000000
 8003378:	d00d      	beq.n	8003396 <TIM_Base_SetConfig+0x46>
 800337a:	4a18      	ldr	r2, [pc, #96]	; (80033dc <TIM_Base_SetConfig+0x8c>)
 800337c:	4290      	cmp	r0, r2
 800337e:	d00a      	beq.n	8003396 <TIM_Base_SetConfig+0x46>
 8003380:	4a17      	ldr	r2, [pc, #92]	; (80033e0 <TIM_Base_SetConfig+0x90>)
 8003382:	4290      	cmp	r0, r2
 8003384:	d007      	beq.n	8003396 <TIM_Base_SetConfig+0x46>
 8003386:	f502 6280 	add.w	r2, r2, #1024	; 0x400
 800338a:	4290      	cmp	r0, r2
 800338c:	d003      	beq.n	8003396 <TIM_Base_SetConfig+0x46>
 800338e:	f502 6280 	add.w	r2, r2, #1024	; 0x400
 8003392:	4290      	cmp	r0, r2
 8003394:	d103      	bne.n	800339e <TIM_Base_SetConfig+0x4e>
 8003396:	68ca      	ldr	r2, [r1, #12]
 8003398:	f423 7340 	bic.w	r3, r3, #768	; 0x300
 800339c:	4313      	orrs	r3, r2
 800339e:	694a      	ldr	r2, [r1, #20]
 80033a0:	f023 0380 	bic.w	r3, r3, #128	; 0x80
 80033a4:	4313      	orrs	r3, r2
 80033a6:	6003      	str	r3, [r0, #0]
 80033a8:	688b      	ldr	r3, [r1, #8]
 80033aa:	62c3      	str	r3, [r0, #44]	; 0x2c
 80033ac:	680b      	ldr	r3, [r1, #0]
 80033ae:	6283      	str	r3, [r0, #40]	; 0x28
 80033b0:	4b09      	ldr	r3, [pc, #36]	; (80033d8 <TIM_Base_SetConfig+0x88>)
 80033b2:	4298      	cmp	r0, r3
 80033b4:	d00b      	beq.n	80033ce <TIM_Base_SetConfig+0x7e>
 80033b6:	f503 53a0 	add.w	r3, r3, #5120	; 0x1400
 80033ba:	4298      	cmp	r0, r3
 80033bc:	d007      	beq.n	80033ce <TIM_Base_SetConfig+0x7e>
 80033be:	f503 6380 	add.w	r3, r3, #1024	; 0x400
 80033c2:	4298      	cmp	r0, r3
 80033c4:	d003      	beq.n	80033ce <TIM_Base_SetConfig+0x7e>
 80033c6:	f503 6380 	add.w	r3, r3, #1024	; 0x400
 80033ca:	4298      	cmp	r0, r3
 80033cc:	d101      	bne.n	80033d2 <TIM_Base_SetConfig+0x82>
 80033ce:	690b      	ldr	r3, [r1, #16]
 80033d0:	6303      	str	r3, [r0, #48]	; 0x30
 80033d2:	2301      	movs	r3, #1
 80033d4:	6143      	str	r3, [r0, #20]
 80033d6:	bd10      	pop	{r4, pc}
 80033d8:	40012c00 	.word	0x40012c00
 80033dc:	40000400 	.word	0x40000400
 80033e0:	40014000 	.word	0x40014000

080033e4 <HAL_TIM_OC_Init>:
 80033e4:	b510      	push	{r4, lr}
 80033e6:	4604      	mov	r4, r0
 80033e8:	b1a0      	cbz	r0, 8003414 <HAL_TIM_OC_Init+0x30>
 80033ea:	f890 303d 	ldrb.w	r3, [r0, #61]	; 0x3d
 80033ee:	f003 02ff 	and.w	r2, r3, #255	; 0xff
 80033f2:	b91b      	cbnz	r3, 80033fc <HAL_TIM_OC_Init+0x18>
 80033f4:	f880 203c 	strb.w	r2, [r0, #60]	; 0x3c
 80033f8:	f7ff ffa8 	bl	800334c <HAL_TIM_OC_MspInit>
 80033fc:	2302      	movs	r3, #2
 80033fe:	f884 303d 	strb.w	r3, [r4, #61]	; 0x3d
 8003402:	6820      	ldr	r0, [r4, #0]
 8003404:	1d21      	adds	r1, r4, #4
 8003406:	f7ff ffa3 	bl	8003350 <TIM_Base_SetConfig>
 800340a:	2301      	movs	r3, #1
 800340c:	f884 303d 	strb.w	r3, [r4, #61]	; 0x3d
 8003410:	2000      	movs	r0, #0
 8003412:	bd10      	pop	{r4, pc}
 8003414:	2001      	movs	r0, #1
 8003416:	bd10      	pop	{r4, pc}

08003418 <TIM_CCxChannelCmd>:
 8003418:	6a03      	ldr	r3, [r0, #32]
 800341a:	b510      	push	{r4, lr}
 800341c:	2401      	movs	r4, #1
 800341e:	408c      	lsls	r4, r1
 8003420:	ea23 0304 	bic.w	r3, r3, r4
 8003424:	6203      	str	r3, [r0, #32]
 8003426:	6a03      	ldr	r3, [r0, #32]
 8003428:	408a      	lsls	r2, r1
 800342a:	431a      	orrs	r2, r3
 800342c:	6202      	str	r2, [r0, #32]
 800342e:	bd10      	pop	{r4, pc}

08003430 <HAL_TIM_PWM_Start>:
 8003430:	b510      	push	{r4, lr}
 8003432:	4604      	mov	r4, r0
 8003434:	2201      	movs	r2, #1
 8003436:	6800      	ldr	r0, [r0, #0]
 8003438:	f7ff ffee 	bl	8003418 <TIM_CCxChannelCmd>
 800343c:	6823      	ldr	r3, [r4, #0]
 800343e:	4a0c      	ldr	r2, [pc, #48]	; (8003470 <HAL_TIM_PWM_Start+0x40>)
 8003440:	4293      	cmp	r3, r2
 8003442:	d00b      	beq.n	800345c <HAL_TIM_PWM_Start+0x2c>
 8003444:	f502 52a0 	add.w	r2, r2, #5120	; 0x1400
 8003448:	4293      	cmp	r3, r2
 800344a:	d007      	beq.n	800345c <HAL_TIM_PWM_Start+0x2c>
 800344c:	f502 6280 	add.w	r2, r2, #1024	; 0x400
 8003450:	4293      	cmp	r3, r2
 8003452:	d003      	beq.n	800345c <HAL_TIM_PWM_Start+0x2c>
 8003454:	f502 6280 	add.w	r2, r2, #1024	; 0x400
 8003458:	4293      	cmp	r3, r2
 800345a:	d103      	bne.n	8003464 <HAL_TIM_PWM_Start+0x34>
 800345c:	6c5a      	ldr	r2, [r3, #68]	; 0x44
 800345e:	f442 4200 	orr.w	r2, r2, #32768	; 0x8000
 8003462:	645a      	str	r2, [r3, #68]	; 0x44
 8003464:	681a      	ldr	r2, [r3, #0]
 8003466:	f042 0201 	orr.w	r2, r2, #1
 800346a:	601a      	str	r2, [r3, #0]
 800346c:	2000      	movs	r0, #0
 800346e:	bd10      	pop	{r4, pc}
 8003470:	40012c00 	.word	0x40012c00

08003474 <HAL_TIM_OC_Start>:
 8003474:	f7ff bfdc 	b.w	8003430 <HAL_TIM_PWM_Start>

08003478 <HAL_UART_MspInit>:
 8003478:	4770      	bx	lr
	...

0800347c <UART_SetConfig>:
 800347c:	b538      	push	{r3, r4, r5, lr}
 800347e:	4604      	mov	r4, r0
 8003480:	6805      	ldr	r5, [r0, #0]
 8003482:	6921      	ldr	r1, [r4, #16]
 8003484:	68a3      	ldr	r3, [r4, #8]
 8003486:	69c2      	ldr	r2, [r0, #28]
 8003488:	6828      	ldr	r0, [r5, #0]
 800348a:	430b      	orrs	r3, r1
 800348c:	6961      	ldr	r1, [r4, #20]
 800348e:	430b      	orrs	r3, r1
 8003490:	4949      	ldr	r1, [pc, #292]	; (80035b8 <UART_SetConfig+0x13c>)
 8003492:	4313      	orrs	r3, r2
 8003494:	4001      	ands	r1, r0
 8003496:	430b      	orrs	r3, r1
 8003498:	602b      	str	r3, [r5, #0]
 800349a:	686b      	ldr	r3, [r5, #4]
 800349c:	68e1      	ldr	r1, [r4, #12]
 800349e:	6a20      	ldr	r0, [r4, #32]
 80034a0:	f423 5340 	bic.w	r3, r3, #12288	; 0x3000
 80034a4:	430b      	orrs	r3, r1
 80034a6:	606b      	str	r3, [r5, #4]
 80034a8:	68a9      	ldr	r1, [r5, #8]
 80034aa:	69a3      	ldr	r3, [r4, #24]
 80034ac:	f421 6130 	bic.w	r1, r1, #2816	; 0xb00
 80034b0:	4303      	orrs	r3, r0
 80034b2:	430b      	orrs	r3, r1
 80034b4:	60ab      	str	r3, [r5, #8]
 80034b6:	4b41      	ldr	r3, [pc, #260]	; (80035bc <UART_SetConfig+0x140>)
 80034b8:	429d      	cmp	r5, r3
 80034ba:	d112      	bne.n	80034e2 <UART_SetConfig+0x66>
 80034bc:	f503 4358 	add.w	r3, r3, #55296	; 0xd800
 80034c0:	493f      	ldr	r1, [pc, #252]	; (80035c0 <UART_SetConfig+0x144>)
 80034c2:	6b1b      	ldr	r3, [r3, #48]	; 0x30
 80034c4:	f003 0303 	and.w	r3, r3, #3
 80034c8:	f5b2 4f00 	cmp.w	r2, #32768	; 0x8000
 80034cc:	5ccb      	ldrb	r3, [r1, r3]
 80034ce:	d13b      	bne.n	8003548 <UART_SetConfig+0xcc>
 80034d0:	2b08      	cmp	r3, #8
 80034d2:	d836      	bhi.n	8003542 <UART_SetConfig+0xc6>
 80034d4:	e8df f003 	tbb	[pc, r3]
 80034d8:	3524210f 	.word	0x3524210f
 80034dc:	3535352d 	.word	0x3535352d
 80034e0:	30          	.byte	0x30
 80034e1:	00          	.byte	0x00
 80034e2:	4b38      	ldr	r3, [pc, #224]	; (80035c4 <UART_SetConfig+0x148>)
 80034e4:	429d      	cmp	r5, r3
 80034e6:	d003      	beq.n	80034f0 <UART_SetConfig+0x74>
 80034e8:	f503 6380 	add.w	r3, r3, #1024	; 0x400
 80034ec:	429d      	cmp	r5, r3
 80034ee:	d15e      	bne.n	80035ae <UART_SetConfig+0x132>
 80034f0:	f5b2 4f00 	cmp.w	r2, #32768	; 0x8000
 80034f4:	d131      	bne.n	800355a <UART_SetConfig+0xde>
 80034f6:	f7ff fdb1 	bl	800305c <HAL_RCC_GetPCLK1Freq>
 80034fa:	6861      	ldr	r1, [r4, #4]
 80034fc:	084a      	lsrs	r2, r1, #1
 80034fe:	eb02 0340 	add.w	r3, r2, r0, lsl #1
 8003502:	fbb3 f3f1 	udiv	r3, r3, r1
 8003506:	b29b      	uxth	r3, r3
 8003508:	2000      	movs	r0, #0
 800350a:	f023 020f 	bic.w	r2, r3, #15
 800350e:	6821      	ldr	r1, [r4, #0]
 8003510:	f3c3 0342 	ubfx	r3, r3, #1, #3
 8003514:	4313      	orrs	r3, r2
 8003516:	60cb      	str	r3, [r1, #12]
 8003518:	bd38      	pop	{r3, r4, r5, pc}
 800351a:	f7ff fdb7 	bl	800308c <HAL_RCC_GetPCLK2Freq>
 800351e:	e7ec      	b.n	80034fa <UART_SetConfig+0x7e>
 8003520:	6860      	ldr	r0, [r4, #4]
 8003522:	0843      	lsrs	r3, r0, #1
 8003524:	f503 0374 	add.w	r3, r3, #15990784	; 0xf40000
 8003528:	f503 5310 	add.w	r3, r3, #9216	; 0x2400
 800352c:	fbb3 f3f0 	udiv	r3, r3, r0
 8003530:	e7e9      	b.n	8003506 <UART_SetConfig+0x8a>
 8003532:	f7ff fc9f 	bl	8002e74 <HAL_RCC_GetSysClockFreq>
 8003536:	e7e0      	b.n	80034fa <UART_SetConfig+0x7e>
 8003538:	6860      	ldr	r0, [r4, #4]
 800353a:	0843      	lsrs	r3, r0, #1
 800353c:	f503 3380 	add.w	r3, r3, #65536	; 0x10000
 8003540:	e7f4      	b.n	800352c <UART_SetConfig+0xb0>
 8003542:	2001      	movs	r0, #1
 8003544:	2300      	movs	r3, #0
 8003546:	e7e0      	b.n	800350a <UART_SetConfig+0x8e>
 8003548:	2b08      	cmp	r3, #8
 800354a:	d833      	bhi.n	80035b4 <UART_SetConfig+0x138>
 800354c:	e8df f003 	tbb	[pc, r3]
 8003550:	321b1005 	.word	0x321b1005
 8003554:	32323227 	.word	0x32323227
 8003558:	2a          	.byte	0x2a
 8003559:	00          	.byte	0x00
 800355a:	f7ff fd7f 	bl	800305c <HAL_RCC_GetPCLK1Freq>
 800355e:	6863      	ldr	r3, [r4, #4]
 8003560:	eb00 0053 	add.w	r0, r0, r3, lsr #1
 8003564:	fbb0 f0f3 	udiv	r0, r0, r3
 8003568:	b280      	uxth	r0, r0
 800356a:	60e8      	str	r0, [r5, #12]
 800356c:	2000      	movs	r0, #0
 800356e:	bd38      	pop	{r3, r4, r5, pc}
 8003570:	f7ff fd8c 	bl	800308c <HAL_RCC_GetPCLK2Freq>
 8003574:	6863      	ldr	r3, [r4, #4]
 8003576:	eb00 0053 	add.w	r0, r0, r3, lsr #1
 800357a:	fbb0 f0f3 	udiv	r0, r0, r3
 800357e:	4b0f      	ldr	r3, [pc, #60]	; (80035bc <UART_SetConfig+0x140>)
 8003580:	b280      	uxth	r0, r0
 8003582:	60d8      	str	r0, [r3, #12]
 8003584:	e7f2      	b.n	800356c <UART_SetConfig+0xf0>
 8003586:	6862      	ldr	r2, [r4, #4]
 8003588:	0853      	lsrs	r3, r2, #1
 800358a:	f503 03f4 	add.w	r3, r3, #7995392	; 0x7a0000
 800358e:	f503 5390 	add.w	r3, r3, #4608	; 0x1200
 8003592:	fbb3 f3f2 	udiv	r3, r3, r2
 8003596:	4a09      	ldr	r2, [pc, #36]	; (80035bc <UART_SetConfig+0x140>)
 8003598:	b29b      	uxth	r3, r3
 800359a:	60d3      	str	r3, [r2, #12]
 800359c:	e7e6      	b.n	800356c <UART_SetConfig+0xf0>
 800359e:	f7ff fc69 	bl	8002e74 <HAL_RCC_GetSysClockFreq>
 80035a2:	e7e7      	b.n	8003574 <UART_SetConfig+0xf8>
 80035a4:	6862      	ldr	r2, [r4, #4]
 80035a6:	0853      	lsrs	r3, r2, #1
 80035a8:	f503 4300 	add.w	r3, r3, #32768	; 0x8000
 80035ac:	e7f1      	b.n	8003592 <UART_SetConfig+0x116>
 80035ae:	f5b2 4f00 	cmp.w	r2, #32768	; 0x8000
 80035b2:	d0c6      	beq.n	8003542 <UART_SetConfig+0xc6>
 80035b4:	2001      	movs	r0, #1
 80035b6:	bd38      	pop	{r3, r4, r5, pc}
 80035b8:	efff69f3 	.word	0xefff69f3
 80035bc:	40013800 	.word	0x40013800
 80035c0:	0800665c 	.word	0x0800665c
 80035c4:	40004400 	.word	0x40004400

080035c8 <UART_AdvFeatureConfig>:
 80035c8:	6a43      	ldr	r3, [r0, #36]	; 0x24
 80035ca:	07da      	lsls	r2, r3, #31
 80035cc:	b510      	push	{r4, lr}
 80035ce:	d506      	bpl.n	80035de <UART_AdvFeatureConfig+0x16>
 80035d0:	6801      	ldr	r1, [r0, #0]
 80035d2:	6a84      	ldr	r4, [r0, #40]	; 0x28
 80035d4:	684a      	ldr	r2, [r1, #4]
 80035d6:	f422 3200 	bic.w	r2, r2, #131072	; 0x20000
 80035da:	4322      	orrs	r2, r4
 80035dc:	604a      	str	r2, [r1, #4]
 80035de:	079c      	lsls	r4, r3, #30
 80035e0:	d506      	bpl.n	80035f0 <UART_AdvFeatureConfig+0x28>
 80035e2:	6801      	ldr	r1, [r0, #0]
 80035e4:	6ac4      	ldr	r4, [r0, #44]	; 0x2c
 80035e6:	684a      	ldr	r2, [r1, #4]
 80035e8:	f422 3280 	bic.w	r2, r2, #65536	; 0x10000
 80035ec:	4322      	orrs	r2, r4
 80035ee:	604a      	str	r2, [r1, #4]
 80035f0:	0759      	lsls	r1, r3, #29
 80035f2:	d506      	bpl.n	8003602 <UART_AdvFeatureConfig+0x3a>
 80035f4:	6801      	ldr	r1, [r0, #0]
 80035f6:	6b04      	ldr	r4, [r0, #48]	; 0x30
 80035f8:	684a      	ldr	r2, [r1, #4]
 80035fa:	f422 2280 	bic.w	r2, r2, #262144	; 0x40000
 80035fe:	4322      	orrs	r2, r4
 8003600:	604a      	str	r2, [r1, #4]
 8003602:	071a      	lsls	r2, r3, #28
 8003604:	d506      	bpl.n	8003614 <UART_AdvFeatureConfig+0x4c>
 8003606:	6801      	ldr	r1, [r0, #0]
 8003608:	6b44      	ldr	r4, [r0, #52]	; 0x34
 800360a:	684a      	ldr	r2, [r1, #4]
 800360c:	f422 4200 	bic.w	r2, r2, #32768	; 0x8000
 8003610:	4322      	orrs	r2, r4
 8003612:	604a      	str	r2, [r1, #4]
 8003614:	06dc      	lsls	r4, r3, #27
 8003616:	d506      	bpl.n	8003626 <UART_AdvFeatureConfig+0x5e>
 8003618:	6801      	ldr	r1, [r0, #0]
 800361a:	6b84      	ldr	r4, [r0, #56]	; 0x38
 800361c:	688a      	ldr	r2, [r1, #8]
 800361e:	f422 5280 	bic.w	r2, r2, #4096	; 0x1000
 8003622:	4322      	orrs	r2, r4
 8003624:	608a      	str	r2, [r1, #8]
 8003626:	0699      	lsls	r1, r3, #26
 8003628:	d506      	bpl.n	8003638 <UART_AdvFeatureConfig+0x70>
 800362a:	6801      	ldr	r1, [r0, #0]
 800362c:	6bc4      	ldr	r4, [r0, #60]	; 0x3c
 800362e:	688a      	ldr	r2, [r1, #8]
 8003630:	f422 5200 	bic.w	r2, r2, #8192	; 0x2000
 8003634:	4322      	orrs	r2, r4
 8003636:	608a      	str	r2, [r1, #8]
 8003638:	065a      	lsls	r2, r3, #25
 800363a:	d50f      	bpl.n	800365c <UART_AdvFeatureConfig+0x94>
 800363c:	6801      	ldr	r1, [r0, #0]
 800363e:	6c04      	ldr	r4, [r0, #64]	; 0x40
 8003640:	684a      	ldr	r2, [r1, #4]
 8003642:	f422 1280 	bic.w	r2, r2, #1048576	; 0x100000
 8003646:	4322      	orrs	r2, r4
 8003648:	f5b4 1f80 	cmp.w	r4, #1048576	; 0x100000
 800364c:	604a      	str	r2, [r1, #4]
 800364e:	d105      	bne.n	800365c <UART_AdvFeatureConfig+0x94>
 8003650:	684a      	ldr	r2, [r1, #4]
 8003652:	6c44      	ldr	r4, [r0, #68]	; 0x44
 8003654:	f422 02c0 	bic.w	r2, r2, #6291456	; 0x600000
 8003658:	4322      	orrs	r2, r4
 800365a:	604a      	str	r2, [r1, #4]
 800365c:	061b      	lsls	r3, r3, #24
 800365e:	d506      	bpl.n	800366e <UART_AdvFeatureConfig+0xa6>
 8003660:	6802      	ldr	r2, [r0, #0]
 8003662:	6c81      	ldr	r1, [r0, #72]	; 0x48
 8003664:	6853      	ldr	r3, [r2, #4]
 8003666:	f423 2300 	bic.w	r3, r3, #524288	; 0x80000
 800366a:	430b      	orrs	r3, r1
 800366c:	6053      	str	r3, [r2, #4]
 800366e:	bd10      	pop	{r4, pc}

08003670 <UART_WaitOnFlagUntilTimeout>:
 8003670:	e92d 41f0 	stmdb	sp!, {r4, r5, r6, r7, r8, lr}
 8003674:	9d06      	ldr	r5, [sp, #24]
 8003676:	4604      	mov	r4, r0
 8003678:	460f      	mov	r7, r1
 800367a:	4616      	mov	r6, r2
 800367c:	4698      	mov	r8, r3
 800367e:	6821      	ldr	r1, [r4, #0]
 8003680:	69ca      	ldr	r2, [r1, #28]
 8003682:	ea37 0302 	bics.w	r3, r7, r2
 8003686:	bf0c      	ite	eq
 8003688:	2201      	moveq	r2, #1
 800368a:	2200      	movne	r2, #0
 800368c:	42b2      	cmp	r2, r6
 800368e:	d002      	beq.n	8003696 <UART_WaitOnFlagUntilTimeout+0x26>
 8003690:	2000      	movs	r0, #0
 8003692:	e8bd 81f0 	ldmia.w	sp!, {r4, r5, r6, r7, r8, pc}
 8003696:	1c6b      	adds	r3, r5, #1
 8003698:	d0f2      	beq.n	8003680 <UART_WaitOnFlagUntilTimeout+0x10>
 800369a:	b99d      	cbnz	r5, 80036c4 <UART_WaitOnFlagUntilTimeout+0x54>
 800369c:	6823      	ldr	r3, [r4, #0]
 800369e:	681a      	ldr	r2, [r3, #0]
 80036a0:	f422 72d0 	bic.w	r2, r2, #416	; 0x1a0
 80036a4:	601a      	str	r2, [r3, #0]
 80036a6:	689a      	ldr	r2, [r3, #8]
 80036a8:	f022 0201 	bic.w	r2, r2, #1
 80036ac:	609a      	str	r2, [r3, #8]
 80036ae:	2320      	movs	r3, #32
 80036b0:	f884 3069 	strb.w	r3, [r4, #105]	; 0x69
 80036b4:	f884 306a 	strb.w	r3, [r4, #106]	; 0x6a
 80036b8:	2300      	movs	r3, #0
 80036ba:	f884 3068 	strb.w	r3, [r4, #104]	; 0x68
 80036be:	2003      	movs	r0, #3
 80036c0:	e8bd 81f0 	ldmia.w	sp!, {r4, r5, r6, r7, r8, pc}
 80036c4:	f7ff fd34 	bl	8003130 <HAL_GetTick>
 80036c8:	eba0 0008 	sub.w	r0, r0, r8
 80036cc:	4285      	cmp	r5, r0
 80036ce:	d2d6      	bcs.n	800367e <UART_WaitOnFlagUntilTimeout+0xe>
 80036d0:	e7e4      	b.n	800369c <UART_WaitOnFlagUntilTimeout+0x2c>

080036d2 <UART_CheckIdleState>:
 80036d2:	b573      	push	{r0, r1, r4, r5, r6, lr}
 80036d4:	4604      	mov	r4, r0
 80036d6:	2600      	movs	r6, #0
 80036d8:	66c6      	str	r6, [r0, #108]	; 0x6c
 80036da:	f7ff fd29 	bl	8003130 <HAL_GetTick>
 80036de:	6823      	ldr	r3, [r4, #0]
 80036e0:	681b      	ldr	r3, [r3, #0]
 80036e2:	071a      	lsls	r2, r3, #28
 80036e4:	4605      	mov	r5, r0
 80036e6:	d417      	bmi.n	8003718 <UART_CheckIdleState+0x46>
 80036e8:	6823      	ldr	r3, [r4, #0]
 80036ea:	681b      	ldr	r3, [r3, #0]
 80036ec:	075b      	lsls	r3, r3, #29
 80036ee:	d50a      	bpl.n	8003706 <UART_CheckIdleState+0x34>
 80036f0:	f06f 437e 	mvn.w	r3, #4261412864	; 0xfe000000
 80036f4:	9300      	str	r3, [sp, #0]
 80036f6:	2200      	movs	r2, #0
 80036f8:	462b      	mov	r3, r5
 80036fa:	f44f 0180 	mov.w	r1, #4194304	; 0x400000
 80036fe:	4620      	mov	r0, r4
 8003700:	f7ff ffb6 	bl	8003670 <UART_WaitOnFlagUntilTimeout>
 8003704:	b9a0      	cbnz	r0, 8003730 <UART_CheckIdleState+0x5e>
 8003706:	2320      	movs	r3, #32
 8003708:	2000      	movs	r0, #0
 800370a:	f884 3069 	strb.w	r3, [r4, #105]	; 0x69
 800370e:	f884 0068 	strb.w	r0, [r4, #104]	; 0x68
 8003712:	f884 306a 	strb.w	r3, [r4, #106]	; 0x6a
 8003716:	e00c      	b.n	8003732 <UART_CheckIdleState+0x60>
 8003718:	f06f 437e 	mvn.w	r3, #4261412864	; 0xfe000000
 800371c:	9300      	str	r3, [sp, #0]
 800371e:	4632      	mov	r2, r6
 8003720:	4603      	mov	r3, r0
 8003722:	f44f 1100 	mov.w	r1, #2097152	; 0x200000
 8003726:	4620      	mov	r0, r4
 8003728:	f7ff ffa2 	bl	8003670 <UART_WaitOnFlagUntilTimeout>
 800372c:	2800      	cmp	r0, #0
 800372e:	d0db      	beq.n	80036e8 <UART_CheckIdleState+0x16>
 8003730:	2003      	movs	r0, #3
 8003732:	b002      	add	sp, #8
 8003734:	bd70      	pop	{r4, r5, r6, pc}

08003736 <HAL_UART_Init>:
 8003736:	b510      	push	{r4, lr}
 8003738:	4604      	mov	r4, r0
 800373a:	b360      	cbz	r0, 8003796 <HAL_UART_Init+0x60>
 800373c:	f890 3069 	ldrb.w	r3, [r0, #105]	; 0x69
 8003740:	f003 02ff 	and.w	r2, r3, #255	; 0xff
 8003744:	b91b      	cbnz	r3, 800374e <HAL_UART_Init+0x18>
 8003746:	f880 2068 	strb.w	r2, [r0, #104]	; 0x68
 800374a:	f7ff fe95 	bl	8003478 <HAL_UART_MspInit>
 800374e:	6822      	ldr	r2, [r4, #0]
 8003750:	2324      	movs	r3, #36	; 0x24
 8003752:	f884 3069 	strb.w	r3, [r4, #105]	; 0x69
 8003756:	6813      	ldr	r3, [r2, #0]
 8003758:	f023 0301 	bic.w	r3, r3, #1
 800375c:	6013      	str	r3, [r2, #0]
 800375e:	4620      	mov	r0, r4
 8003760:	f7ff fe8c 	bl	800347c <UART_SetConfig>
 8003764:	2801      	cmp	r0, #1
 8003766:	d016      	beq.n	8003796 <HAL_UART_Init+0x60>
 8003768:	6a63      	ldr	r3, [r4, #36]	; 0x24
 800376a:	b113      	cbz	r3, 8003772 <HAL_UART_Init+0x3c>
 800376c:	4620      	mov	r0, r4
 800376e:	f7ff ff2b 	bl	80035c8 <UART_AdvFeatureConfig>
 8003772:	6823      	ldr	r3, [r4, #0]
 8003774:	685a      	ldr	r2, [r3, #4]
 8003776:	f422 4290 	bic.w	r2, r2, #18432	; 0x4800
 800377a:	605a      	str	r2, [r3, #4]
 800377c:	689a      	ldr	r2, [r3, #8]
 800377e:	f022 022a 	bic.w	r2, r2, #42	; 0x2a
 8003782:	609a      	str	r2, [r3, #8]
 8003784:	681a      	ldr	r2, [r3, #0]
 8003786:	f042 0201 	orr.w	r2, r2, #1
 800378a:	4620      	mov	r0, r4
 800378c:	601a      	str	r2, [r3, #0]
 800378e:	e8bd 4010 	ldmia.w	sp!, {r4, lr}
 8003792:	f7ff bf9e 	b.w	80036d2 <UART_CheckIdleState>
 8003796:	2001      	movs	r0, #1
 8003798:	bd10      	pop	{r4, pc}

0800379a <mbed::FileLike::lseek(long, int)>:
 800379a:	6803      	ldr	r3, [r0, #0]
 800379c:	69db      	ldr	r3, [r3, #28]
 800379e:	4718      	bx	r3

080037a0 <mbed::FileLike::fsync()>:
 80037a0:	6803      	ldr	r3, [r0, #0]
 80037a2:	695b      	ldr	r3, [r3, #20]
 80037a4:	4718      	bx	r3

080037a6 <mbed::FileLike::flen()>:
 80037a6:	6803      	ldr	r3, [r0, #0]
 80037a8:	6a9b      	ldr	r3, [r3, #40]	; 0x28
 80037aa:	4718      	bx	r3

080037ac <mbed::Serial::_getc()>:
 80037ac:	f000 ba91 	b.w	8003cd2 <mbed::SerialBase::_base_getc()>

080037b0 <non-virtual thunk to mbed::Serial::_getc()>:
 80037b0:	f1a0 004c 	sub.w	r0, r0, #76	; 0x4c
 80037b4:	f7ff bffa 	b.w	80037ac <mbed::Serial::_getc()>

080037b8 <mbed::Serial::_putc(int)>:
 80037b8:	f000 ba8e 	b.w	8003cd8 <mbed::SerialBase::_base_putc(int)>

080037bc <non-virtual thunk to mbed::Serial::_putc(int)>:
 80037bc:	f1a0 004c 	sub.w	r0, r0, #76	; 0x4c
 80037c0:	f7ff bffa 	b.w	80037b8 <mbed::Serial::_putc(int)>

080037c4 <mbed::Serial::lock()>:
 80037c4:	f04f 31ff 	mov.w	r1, #4294967295	; 0xffffffff
 80037c8:	3060      	adds	r0, #96	; 0x60
 80037ca:	f000 be1b 	b.w	8004404 <rtos::Mutex::lock(unsigned long)>

080037ce <non-virtual thunk to mbed::Serial::lock()>:
 80037ce:	f1a0 004c 	sub.w	r0, r0, #76	; 0x4c
 80037d2:	f7ff bff7 	b.w	80037c4 <mbed::Serial::lock()>

080037d6 <mbed::Serial::unlock()>:
 80037d6:	3060      	adds	r0, #96	; 0x60
 80037d8:	f000 be17 	b.w	800440a <rtos::Mutex::unlock()>

080037dc <non-virtual thunk to mbed::Serial::unlock()>:
 80037dc:	f1a0 004c 	sub.w	r0, r0, #76	; 0x4c
 80037e0:	f7ff bff9 	b.w	80037d6 <mbed::Serial::unlock()>

080037e4 <mbed::Serial::Serial(PinName, PinName, int)>:
 80037e4:	b510      	push	{r4, lr}
 80037e6:	4604      	mov	r4, r0
 80037e8:	f000 fa7e 	bl	8003ce8 <mbed::SerialBase::SerialBase(PinName, PinName, int)>
 80037ec:	2100      	movs	r1, #0
 80037ee:	f104 004c 	add.w	r0, r4, #76	; 0x4c
 80037f2:	f000 f8e9 	bl	80039c8 <mbed::Stream::Stream(char const*)>
 80037f6:	4b06      	ldr	r3, [pc, #24]	; (8003810 <mbed::Serial::Serial(PinName, PinName, int)+0x2c>)
 80037f8:	f103 0208 	add.w	r2, r3, #8
 80037fc:	3328      	adds	r3, #40	; 0x28
 80037fe:	6022      	str	r2, [r4, #0]
 8003800:	64e3      	str	r3, [r4, #76]	; 0x4c
 8003802:	f104 0060 	add.w	r0, r4, #96	; 0x60
 8003806:	f000 fde5 	bl	80043d4 <rtos::Mutex::Mutex()>
 800380a:	4620      	mov	r0, r4
 800380c:	bd10      	pop	{r4, pc}
 800380e:	bf00      	nop
 8003810:	08006660 	.word	0x08006660

08003814 <mbed::FileBase::getPathType()>:
 8003814:	7b00      	ldrb	r0, [r0, #12]
 8003816:	4770      	bx	lr

08003818 <SingletonPtr<rtos::Mutex>::get()>:
 8003818:	6803      	ldr	r3, [r0, #0]
 800381a:	b570      	push	{r4, r5, r6, lr}
 800381c:	4604      	mov	r4, r0
 800381e:	b983      	cbnz	r3, 8003842 <SingletonPtr<rtos::Mutex>::get()+0x2a>
 8003820:	4d09      	ldr	r5, [pc, #36]	; (8003848 <SingletonPtr<rtos::Mutex>::get()+0x30>)
 8003822:	f04f 31ff 	mov.w	r1, #4294967295	; 0xffffffff
 8003826:	6828      	ldr	r0, [r5, #0]
 8003828:	f7fd fc94 	bl	8001154 <osMutexWait>
 800382c:	6823      	ldr	r3, [r4, #0]
 800382e:	b92b      	cbnz	r3, 800383c <SingletonPtr<rtos::Mutex>::get()+0x24>
 8003830:	1d26      	adds	r6, r4, #4
 8003832:	d002      	beq.n	800383a <SingletonPtr<rtos::Mutex>::get()+0x22>
 8003834:	4630      	mov	r0, r6
 8003836:	f000 fdcd 	bl	80043d4 <rtos::Mutex::Mutex()>
 800383a:	6026      	str	r6, [r4, #0]
 800383c:	6828      	ldr	r0, [r5, #0]
 800383e:	f7fd fcb1 	bl	80011a4 <osMutexRelease>
 8003842:	6820      	ldr	r0, [r4, #0]
 8003844:	bd70      	pop	{r4, r5, r6, pc}
 8003846:	bf00      	nop
 8003848:	20001494 	.word	0x20001494

0800384c <mbed::FileBase::FileBase(char const*, mbed::PathType)>:
 800384c:	b538      	push	{r3, r4, r5, lr}
 800384e:	4604      	mov	r4, r0
 8003850:	4b0d      	ldr	r3, [pc, #52]	; (8003888 <mbed::FileBase::FileBase(char const*, mbed::PathType)+0x3c>)
 8003852:	6003      	str	r3, [r0, #0]
 8003854:	2300      	movs	r3, #0
 8003856:	6043      	str	r3, [r0, #4]
 8003858:	60a1      	str	r1, [r4, #8]
 800385a:	7302      	strb	r2, [r0, #12]
 800385c:	480b      	ldr	r0, [pc, #44]	; (800388c <mbed::FileBase::FileBase(char const*, mbed::PathType)+0x40>)
 800385e:	460d      	mov	r5, r1
 8003860:	f7ff ffda 	bl	8003818 <SingletonPtr<rtos::Mutex>::get()>
 8003864:	f04f 31ff 	mov.w	r1, #4294967295	; 0xffffffff
 8003868:	f000 fdcc 	bl	8004404 <rtos::Mutex::lock(unsigned long)>
 800386c:	b155      	cbz	r5, 8003884 <mbed::FileBase::FileBase(char const*, mbed::PathType)+0x38>
 800386e:	4b08      	ldr	r3, [pc, #32]	; (8003890 <mbed::FileBase::FileBase(char const*, mbed::PathType)+0x44>)
 8003870:	681a      	ldr	r2, [r3, #0]
 8003872:	6062      	str	r2, [r4, #4]
 8003874:	601c      	str	r4, [r3, #0]
 8003876:	4805      	ldr	r0, [pc, #20]	; (800388c <mbed::FileBase::FileBase(char const*, mbed::PathType)+0x40>)
 8003878:	f7ff ffce 	bl	8003818 <SingletonPtr<rtos::Mutex>::get()>
 800387c:	f000 fdc5 	bl	800440a <rtos::Mutex::unlock()>
 8003880:	4620      	mov	r0, r4
 8003882:	bd38      	pop	{r3, r4, r5, pc}
 8003884:	6065      	str	r5, [r4, #4]
 8003886:	e7f6      	b.n	8003876 <mbed::FileBase::FileBase(char const*, mbed::PathType)+0x2a>
 8003888:	080066d8 	.word	0x080066d8
 800388c:	2000102c 	.word	0x2000102c
 8003890:	20001028 	.word	0x20001028

08003894 <mbed::FileBase::~FileBase()>:
 8003894:	4b12      	ldr	r3, [pc, #72]	; (80038e0 <mbed::FileBase::~FileBase()+0x4c>)
 8003896:	b510      	push	{r4, lr}
 8003898:	6003      	str	r3, [r0, #0]
 800389a:	4604      	mov	r4, r0
 800389c:	4811      	ldr	r0, [pc, #68]	; (80038e4 <mbed::FileBase::~FileBase()+0x50>)
 800389e:	f7ff ffbb 	bl	8003818 <SingletonPtr<rtos::Mutex>::get()>
 80038a2:	f04f 31ff 	mov.w	r1, #4294967295	; 0xffffffff
 80038a6:	f000 fdad 	bl	8004404 <rtos::Mutex::lock(unsigned long)>
 80038aa:	68a3      	ldr	r3, [r4, #8]
 80038ac:	b12b      	cbz	r3, 80038ba <mbed::FileBase::~FileBase()+0x26>
 80038ae:	4a0e      	ldr	r2, [pc, #56]	; (80038e8 <mbed::FileBase::~FileBase()+0x54>)
 80038b0:	6813      	ldr	r3, [r2, #0]
 80038b2:	429c      	cmp	r4, r3
 80038b4:	d10e      	bne.n	80038d4 <mbed::FileBase::~FileBase()+0x40>
 80038b6:	6863      	ldr	r3, [r4, #4]
 80038b8:	6013      	str	r3, [r2, #0]
 80038ba:	480a      	ldr	r0, [pc, #40]	; (80038e4 <mbed::FileBase::~FileBase()+0x50>)
 80038bc:	f7ff ffac 	bl	8003818 <SingletonPtr<rtos::Mutex>::get()>
 80038c0:	f000 fda3 	bl	800440a <rtos::Mutex::unlock()>
 80038c4:	7b23      	ldrb	r3, [r4, #12]
 80038c6:	b913      	cbnz	r3, 80038ce <mbed::FileBase::~FileBase()+0x3a>
 80038c8:	4620      	mov	r0, r4
 80038ca:	f000 fc9f 	bl	800420c <mbed::remove_filehandle(mbed::FileLike*)>
 80038ce:	4620      	mov	r0, r4
 80038d0:	bd10      	pop	{r4, pc}
 80038d2:	4613      	mov	r3, r2
 80038d4:	685a      	ldr	r2, [r3, #4]
 80038d6:	4294      	cmp	r4, r2
 80038d8:	d1fb      	bne.n	80038d2 <mbed::FileBase::~FileBase()+0x3e>
 80038da:	6862      	ldr	r2, [r4, #4]
 80038dc:	605a      	str	r2, [r3, #4]
 80038de:	e7ec      	b.n	80038ba <mbed::FileBase::~FileBase()+0x26>
 80038e0:	080066d8 	.word	0x080066d8
 80038e4:	2000102c 	.word	0x2000102c
 80038e8:	20001028 	.word	0x20001028

080038ec <mbed::FileBase::~FileBase()>:
 80038ec:	b510      	push	{r4, lr}
 80038ee:	4604      	mov	r4, r0
 80038f0:	f7ff ffd0 	bl	8003894 <mbed::FileBase::~FileBase()>
 80038f4:	4620      	mov	r0, r4
 80038f6:	f000 fc86 	bl	8004206 <operator delete(void*)>
 80038fa:	4620      	mov	r0, r4
 80038fc:	bd10      	pop	{r4, pc}
	...

08003900 <mbed::FileBase::lookup(char const*, unsigned int)>:
 8003900:	b5f8      	push	{r3, r4, r5, r6, r7, lr}
 8003902:	4607      	mov	r7, r0
 8003904:	4810      	ldr	r0, [pc, #64]	; (8003948 <mbed::FileBase::lookup(char const*, unsigned int)+0x48>)
 8003906:	460e      	mov	r6, r1
 8003908:	f7ff ff86 	bl	8003818 <SingletonPtr<rtos::Mutex>::get()>
 800390c:	f04f 31ff 	mov.w	r1, #4294967295	; 0xffffffff
 8003910:	f000 fd78 	bl	8004404 <rtos::Mutex::lock(unsigned long)>
 8003914:	4b0d      	ldr	r3, [pc, #52]	; (800394c <mbed::FileBase::lookup(char const*, unsigned int)+0x4c>)
 8003916:	681c      	ldr	r4, [r3, #0]
 8003918:	b164      	cbz	r4, 8003934 <mbed::FileBase::lookup(char const*, unsigned int)+0x34>
 800391a:	68a5      	ldr	r5, [r4, #8]
 800391c:	b18d      	cbz	r5, 8003942 <mbed::FileBase::lookup(char const*, unsigned int)+0x42>
 800391e:	4632      	mov	r2, r6
 8003920:	4639      	mov	r1, r7
 8003922:	4628      	mov	r0, r5
 8003924:	f001 ffb7 	bl	8005896 <strncmp>
 8003928:	b958      	cbnz	r0, 8003942 <mbed::FileBase::lookup(char const*, unsigned int)+0x42>
 800392a:	4628      	mov	r0, r5
 800392c:	f001 ffab 	bl	8005886 <strlen>
 8003930:	4286      	cmp	r6, r0
 8003932:	d106      	bne.n	8003942 <mbed::FileBase::lookup(char const*, unsigned int)+0x42>
 8003934:	4804      	ldr	r0, [pc, #16]	; (8003948 <mbed::FileBase::lookup(char const*, unsigned int)+0x48>)
 8003936:	f7ff ff6f 	bl	8003818 <SingletonPtr<rtos::Mutex>::get()>
 800393a:	f000 fd66 	bl	800440a <rtos::Mutex::unlock()>
 800393e:	4620      	mov	r0, r4
 8003940:	bdf8      	pop	{r3, r4, r5, r6, r7, pc}
 8003942:	6864      	ldr	r4, [r4, #4]
 8003944:	e7e8      	b.n	8003918 <mbed::FileBase::lookup(char const*, unsigned int)+0x18>
 8003946:	bf00      	nop
 8003948:	2000102c 	.word	0x2000102c
 800394c:	20001028 	.word	0x20001028

08003950 <mbed::FileLike::lock()>:
 8003950:	4770      	bx	lr

08003952 <mbed::FileLike::unlock()>:
 8003952:	4770      	bx	lr

08003954 <mbed::Stream::write(void const*, unsigned int)>:
 8003954:	b5f8      	push	{r3, r4, r5, r6, r7, lr}
 8003956:	6803      	ldr	r3, [r0, #0]
 8003958:	6b9b      	ldr	r3, [r3, #56]	; 0x38
 800395a:	460e      	mov	r6, r1
 800395c:	4604      	mov	r4, r0
 800395e:	188f      	adds	r7, r1, r2
 8003960:	4798      	blx	r3
 8003962:	4635      	mov	r5, r6
 8003964:	42bd      	cmp	r5, r7
 8003966:	d007      	beq.n	8003978 <mbed::Stream::write(void const*, unsigned int)+0x24>
 8003968:	6823      	ldr	r3, [r4, #0]
 800396a:	f815 1b01 	ldrb.w	r1, [r5], #1
 800396e:	6c1b      	ldr	r3, [r3, #64]	; 0x40
 8003970:	4620      	mov	r0, r4
 8003972:	4798      	blx	r3
 8003974:	3001      	adds	r0, #1
 8003976:	d1f5      	bne.n	8003964 <mbed::Stream::write(void const*, unsigned int)+0x10>
 8003978:	6823      	ldr	r3, [r4, #0]
 800397a:	4620      	mov	r0, r4
 800397c:	6bdb      	ldr	r3, [r3, #60]	; 0x3c
 800397e:	4798      	blx	r3
 8003980:	1ba8      	subs	r0, r5, r6
 8003982:	bdf8      	pop	{r3, r4, r5, r6, r7, pc}

08003984 <mbed::Stream::read(void*, unsigned int)>:
 8003984:	b5f8      	push	{r3, r4, r5, r6, r7, lr}
 8003986:	6803      	ldr	r3, [r0, #0]
 8003988:	6b9b      	ldr	r3, [r3, #56]	; 0x38
 800398a:	460e      	mov	r6, r1
 800398c:	4604      	mov	r4, r0
 800398e:	188f      	adds	r7, r1, r2
 8003990:	4798      	blx	r3
 8003992:	4635      	mov	r5, r6
 8003994:	42bd      	cmp	r5, r7
 8003996:	d008      	beq.n	80039aa <mbed::Stream::read(void*, unsigned int)+0x26>
 8003998:	6823      	ldr	r3, [r4, #0]
 800399a:	4620      	mov	r0, r4
 800399c:	6c5b      	ldr	r3, [r3, #68]	; 0x44
 800399e:	4798      	blx	r3
 80039a0:	1c43      	adds	r3, r0, #1
 80039a2:	d002      	beq.n	80039aa <mbed::Stream::read(void*, unsigned int)+0x26>
 80039a4:	f805 0b01 	strb.w	r0, [r5], #1
 80039a8:	e7f4      	b.n	8003994 <mbed::Stream::read(void*, unsigned int)+0x10>
 80039aa:	6823      	ldr	r3, [r4, #0]
